(igraphp
SubjectGraph
p0
(dp1
S'graph'
p2
ccopy_reg
_reconstructor
p3
(cnetworkx.classes.multidigraph
MultiDiGraph
p4
c__builtin__
object
p5
Ntp6
Rp7
(dp8
S'node'
p9
(dp10
Vhttp://dbpedia.org/property/website
p11
(dp12
S'obj'
p13
(igraphp
PropertyNode
p14
(dp15
S'support'
p16
I100
sS'ratio'
p17
I-1
sS'uri'
p18
g11
sS'title'
p19
Vwebsite
p20
sbssVhttp://dbpedia.org/ontology/Genre@http://dbpedia.org/property/genre
p21
(dp22
g13
(igraphp
TypeNode
p23
(dp24
S'uniques'
p25
I0
sS'checked'
p26
I00
sg19
VGenre
p27
sg16
I76
sg18
Vhttp://dbpedia.org/ontology/Genre
p28
sg17
I-1
sS'is_unique'
p29
I01
sS'prop_uri'
p30
Vhttp://dbpedia.org/property/genre
p31
sbssS'http://dbpedia.org/ontology/Comedian'
p32
(dp33
sVhttp://dbpedia.org/property/birthDate
p34
(dp35
g13
(igraphp
PropertyNode
p36
(dp37
g16
I100
sg17
I-1
sg18
g34
sg19
VbirthDate
p38
sbssVhttp://dbpedia.org/ontology/TopicalConcept@http://dbpedia.org/property/genre
p39
(dp40
g13
(igraphp
TypeNode
p41
(dp42
g25
I0
sg26
I00
sg19
VTopicalConcept
p43
sg16
I76
sg18
Vhttp://dbpedia.org/ontology/TopicalConcept
p44
sg17
I-1
sg29
I01
sg30
g31
sbssVhttp://dbpedia.org/ontology/Genre@http://dbpedia.org/property/subject
p45
(dp46
g13
(igraphp
TypeNode
p47
(dp48
g25
I0
sg26
I00
sg19
VGenre
p49
sg16
I19
sg18
Vhttp://dbpedia.org/ontology/Genre
p50
sg17
I-1
sg29
I01
sg30
Vhttp://dbpedia.org/property/subject
p51
sbssVhttp://dbpedia.org/ontology/FictionalCharacter@http://dbpedia.org/property/notableWork
p52
(dp53
g13
(igraphp
TypeNode
p54
(dp55
g25
I0
sg26
I00
sg19
VFictionalCharacter
p56
sg16
I1
sg18
Vhttp://dbpedia.org/ontology/FictionalCharacter
p57
sg17
I-1
sg29
I01
sg30
Vhttp://dbpedia.org/property/notableWork
p58
sbssVhttp://dbpedia.org/ontology/City@http://dbpedia.org/property/birthPlace
p59
(dp60
g13
(igraphp
TypeNode
p61
(dp62
g25
I0
sg26
I00
sg19
VCity
p63
sg16
I25
sg18
Vhttp://dbpedia.org/ontology/City
p64
sg17
I-1
sg29
I01
sg30
Vhttp://dbpedia.org/property/birthPlace
p65
sbssVhttp://dbpedia.org/ontology/Agent@http://dbpedia.org/property/notableWork
p66
(dp67
g13
(igraphp
TypeNode
p68
(dp69
g25
I0
sg26
I00
sg19
VAgent
p70
sg16
I3
sg18
Vhttp://dbpedia.org/ontology/Agent
p71
sg17
I-1
sg29
I01
sg30
g58
sbssVhttp://dbpedia.org/ontology/EthnicGroup@http://dbpedia.org/property/nationality
p72
(dp73
g13
(igraphp
TypeNode
p74
(dp75
g25
I0
sg26
I00
sg19
VEthnicGroup
p76
sg16
I9
sg18
Vhttp://dbpedia.org/ontology/EthnicGroup
p77
sg17
I-1
sg29
I01
sg30
Vhttp://dbpedia.org/property/nationality
p78
sbssVhttp://dbpedia.org/ontology/Country@http://dbpedia.org/property/nationality
p79
(dp80
g13
(igraphp
TypeNode
p81
(dp82
g25
I0
sg26
I00
sg19
VCountry
p83
sg16
I10
sg18
Vhttp://dbpedia.org/ontology/Country
p84
sg17
I-1
sg29
I01
sg30
g78
sbssVhttp://dbpedia.org/ontology/Village@http://dbpedia.org/property/birthPlace
p85
(dp86
g13
(igraphp
TypeNode
p87
(dp88
g25
I0
sg26
I00
sg19
VVillage
p89
sg16
I1
sg18
Vhttp://dbpedia.org/ontology/Village
p90
sg17
I-1
sg29
I01
sg30
g65
sbssVhttp://dbpedia.org/ontology/Wikidata:Q11424@http://dbpedia.org/property/notableWork
p91
(dp92
g13
(igraphp
TypeNode
p93
(dp94
g25
I0
sg26
I00
sg19
VWikidata:Q11424
p95
sg16
I2
sg18
Vhttp://dbpedia.org/ontology/Wikidata:Q11424
p96
sg17
I-1
sg29
I01
sg30
g58
sbssVhttp://dbpedia.org/property/caption
p97
(dp98
g13
(igraphp
PropertyNode
p99
(dp100
g16
I100
sg17
I-1
sg18
g97
sg19
Vcaption
p101
sbssg31
(dp102
g13
(igraphp
PropertyNode
p103
(dp104
g16
I100
sg17
I-1
sg18
g31
sg19
Vgenre
p105
sbssVhttp://dbpedia.org/ontology/ComedyGroup@http://dbpedia.org/property/notableWork
p106
(dp107
g13
(igraphp
TypeNode
p108
(dp109
g25
I0
sg26
I00
sg19
VComedyGroup
p110
sg16
I2
sg18
Vhttp://dbpedia.org/ontology/ComedyGroup
p111
sg17
I-1
sg29
I01
sg30
g58
sbssVhttp://dbpedia.org/ontology/Work@http://dbpedia.org/property/notableWork
p112
(dp113
g13
(igraphp
TypeNode
p114
(dp115
g25
I0
sg26
I00
sg19
VWork
p116
sg16
I4
sg18
Vhttp://dbpedia.org/ontology/Work
p117
sg17
I-1
sg29
I01
sg30
g58
sbssVhttp://dbpedia.org/ontology/Comedian@http://dbpedia.org/property/spouse
p118
(dp119
g13
(igraphp
TypeNode
p120
(dp121
g25
I0
sg26
I00
sg19
VComedian
p122
sg16
I1
sg18
Vhttp://dbpedia.org/ontology/Comedian
p123
sg17
I-1
sg29
I01
sg30
Vhttp://dbpedia.org/property/spouse
p124
sbssg51
(dp125
g13
(igraphp
PropertyNode
p126
(dp127
g16
I100
sg17
I-1
sg18
g51
sg19
Vsubject
p128
sbssVhttp://dbpedia.org/property/dateOfBirth
p129
(dp130
g13
(igraphp
PropertyNode
p131
(dp132
g16
I100
sg17
I-1
sg18
g129
sg19
VdateOfBirth
p133
sbssVhttp://dbpedia.org/ontology/Settlement@http://dbpedia.org/property/birthPlace
p134
(dp135
g13
(igraphp
TypeNode
p136
(dp137
g25
I0
sg26
I00
sg19
VSettlement
p138
sg16
I37
sg18
Vhttp://dbpedia.org/ontology/Settlement
p139
sg17
I-1
sg29
I01
sg30
g65
sbssVhttp://dbpedia.org/property/alternativeNames
p140
(dp141
g13
(igraphp
PropertyNode
p142
(dp143
g16
I100
sg17
I-1
sg18
g140
sg19
ValternativeNames
p144
sbssVhttp://dbpedia.org/ontology/TelevisionShow@http://dbpedia.org/property/notableWork
p145
(dp146
g13
(igraphp
TypeNode
p147
(dp148
g25
I0
sg26
I00
sg19
VTelevisionShow
p149
sg16
I3
sg18
Vhttp://dbpedia.org/ontology/TelevisionShow
p150
sg17
I-1
sg29
I01
sg30
g58
sbssVhttp://dbpedia.org/ontology/Place@http://dbpedia.org/property/birthPlace
p151
(dp152
g13
(igraphp
TypeNode
p153
(dp154
g25
I0
sg26
I00
sg19
VPlace
p155
sg16
I41
sg18
Vhttp://dbpedia.org/ontology/Place
p156
sg17
I-1
sg29
I01
sg30
g65
sbssVhttp://dbpedia.org/ontology/PopulatedPlace@http://dbpedia.org/property/nationality
p157
(dp158
g13
(igraphp
TypeNode
p159
(dp160
g25
I0
sg26
I00
sg19
VPopulatedPlace
p161
sg16
I10
sg18
Vhttp://dbpedia.org/ontology/PopulatedPlace
p162
sg17
I-1
sg29
I01
sg30
g78
sbssVhttp://dbpedia.org/ontology/Group@http://dbpedia.org/property/notableWork
p163
(dp164
g13
(igraphp
TypeNode
p165
(dp166
g25
I0
sg26
I00
sg19
VGroup
p167
sg16
I2
sg18
Vhttp://dbpedia.org/ontology/Group
p168
sg17
I-1
sg29
I01
sg30
g58
sbssVhttp://dbpedia.org/ontology/MusicGenre@http://dbpedia.org/property/genre
p169
(dp170
g13
(igraphp
TypeNode
p171
(dp172
g25
I0
sg26
I00
sg19
VMusicGenre
p173
sg16
I10
sg18
Vhttp://dbpedia.org/ontology/MusicGenre
p174
sg17
I-1
sg29
I01
sg30
g31
sbssVhttp://dbpedia.org/ontology/Person@http://dbpedia.org/property/spouse
p175
(dp176
g13
(igraphp
TypeNode
p177
(dp178
g25
I0
sg26
I00
sg19
VPerson
p179
sg16
I24
sg18
Vhttp://dbpedia.org/ontology/Person
p180
sg17
I-1
sg29
I01
sg30
g124
sbssg65
(dp181
g13
(igraphp
PropertyNode
p182
(dp183
g16
I100
sg17
I-1
sg18
g65
sg19
VbirthPlace
p184
sbssVhttp://dbpedia.org/property/medium
p185
(dp186
g13
(igraphp
PropertyNode
p187
(dp188
g16
I100
sg17
I-1
sg18
g185
sg19
Vmedium
p189
sbssVhttp://dbpedia.org/property/shortDescription
p190
(dp191
g13
(igraphp
PropertyNode
p192
(dp193
g16
I100
sg17
I-1
sg18
g190
sg19
VshortDescription
p194
sbssVhttp://dbpedia.org/ontology/Region@http://dbpedia.org/property/birthPlace
p195
(dp196
g13
(igraphp
TypeNode
p197
(dp198
g25
I0
sg26
I00
sg19
VRegion
p199
sg16
I13
sg18
Vhttp://dbpedia.org/ontology/Region
p200
sg17
I-1
sg29
I01
sg30
g65
sbssVhttp://dbpedia.org/ontology/Film@http://dbpedia.org/property/notableWork
p201
(dp202
g13
(igraphp
TypeNode
p203
(dp204
g25
I0
sg26
I00
sg19
VFilm
p205
sg16
I2
sg18
Vhttp://dbpedia.org/ontology/Film
p206
sg17
I-1
sg29
I01
sg30
g58
sbssVhttp://dbpedia.org/property/birthName
p207
(dp208
g13
(igraphp
PropertyNode
p209
(dp210
g16
I100
sg17
I-1
sg18
g207
sg19
VbirthName
p211
sbssVhttp://dbpedia.org/ontology/SoapCharacter@http://dbpedia.org/property/notableWork
p212
(dp213
g13
(igraphp
TypeNode
p214
(dp215
g25
I0
sg26
I00
sg19
VSoapCharacter
p216
sg16
I1
sg18
Vhttp://dbpedia.org/ontology/SoapCharacter
p217
sg17
I-1
sg29
I01
sg30
g58
sbssg124
(dp218
g13
(igraphp
PropertyNode
p219
(dp220
g16
I100
sg17
I-1
sg18
g124
sg19
Vspouse
p221
sbssVhttp://dbpedia.org/ontology/Organisation@http://dbpedia.org/property/notableWork
p222
(dp223
g13
(igraphp
TypeNode
p224
(dp225
g25
I0
sg26
I00
sg19
VOrganisation
p226
sg16
I2
sg18
Vhttp://dbpedia.org/ontology/Organisation
p227
sg17
I-1
sg29
I01
sg30
g58
sbssVhttp://dbpedia.org/ontology/Town@http://dbpedia.org/property/birthPlace
p228
(dp229
g13
(igraphp
TypeNode
p230
(dp231
g25
I0
sg26
I00
sg19
VTown
p232
sg16
I3
sg18
Vhttp://dbpedia.org/ontology/Town
p233
sg17
I-1
sg29
I01
sg30
g65
sbssVhttp://dbpedia.org/ontology/MusicalArtist@http://dbpedia.org/property/spouse
p234
(dp235
g13
(igraphp
TypeNode
p236
(dp237
g25
I0
sg26
I00
sg19
VMusicalArtist
p238
sg16
I3
sg18
Vhttp://dbpedia.org/ontology/MusicalArtist
p239
sg17
I-1
sg29
I01
sg30
g124
sbssVhttp://dbpedia.org/ontology/AdministrativeRegion@http://dbpedia.org/property/birthPlace
p240
(dp241
g13
(igraphp
TypeNode
p242
(dp243
g25
I0
sg26
I00
sg19
VAdministrativeRegion
p244
sg16
I13
sg18
Vhttp://dbpedia.org/ontology/AdministrativeRegion
p245
sg17
I-1
sg29
I01
sg30
g65
sbssVhttp://dbpedia.org/ontology/Location@http://dbpedia.org/property/nationality
p246
(dp247
g13
(igraphp
TypeNode
p248
(dp249
g25
I0
sg26
I00
sg19
VLocation
p250
sg16
I10
sg18
Vhttp://dbpedia.org/ontology/Location
p251
sg17
I-1
sg29
I01
sg30
g78
sbssVhttp://dbpedia.org/ontology/Location@http://dbpedia.org/property/birthPlace
p252
(dp253
g13
(igraphp
TypeNode
p254
(dp255
g25
I0
sg26
I00
sg19
VLocation
p256
sg16
I41
sg18
Vhttp://dbpedia.org/ontology/Location
p257
sg17
I-1
sg29
I01
sg30
g65
sbssg78
(dp258
g13
(igraphp
PropertyNode
p259
(dp260
g16
I100
sg17
I-1
sg18
g78
sg19
Vnationality
p261
sbssVhttp://dbpedia.org/ontology/Place@http://dbpedia.org/property/nationality
p262
(dp263
g13
(igraphp
TypeNode
p264
(dp265
g25
I0
sg26
I00
sg19
VPlace
p266
sg16
I10
sg18
Vhttp://dbpedia.org/ontology/Place
p267
sg17
I-1
sg29
I01
sg30
g78
sbssg58
(dp268
g13
(igraphp
PropertyNode
p269
(dp270
g16
I100
sg17
I-1
sg18
g58
sg19
VnotableWork
p271
sbssVhttp://dbpedia.org/ontology/Country@http://dbpedia.org/property/birthPlace
p272
(dp273
g13
(igraphp
TypeNode
p274
(dp275
g25
I0
sg26
I00
sg19
VCountry
p276
sg16
I29
sg18
Vhttp://dbpedia.org/ontology/Country
p277
sg17
I-1
sg29
I01
sg30
g65
sbssVhttp://dbpedia.org/ontology/TopicalConcept@http://dbpedia.org/property/subject
p278
(dp279
g13
(igraphp
TypeNode
p280
(dp281
g25
I0
sg26
I00
sg19
VTopicalConcept
p282
sg16
I19
sg18
Vhttp://dbpedia.org/ontology/TopicalConcept
p283
sg17
I-1
sg29
I01
sg30
g51
sbssVhttp://dbpedia.org/ontology/TopicalConcept@http://dbpedia.org/property/medium
p284
(dp285
g13
(igraphp
TypeNode
p286
(dp287
g25
I0
sg26
I00
sg19
VTopicalConcept
p288
sg16
I43
sg18
Vhttp://dbpedia.org/ontology/TopicalConcept
p289
sg17
I-1
sg29
I01
sg30
g185
sbssVhttp://dbpedia.org/ontology/Artist@http://dbpedia.org/property/spouse
p290
(dp291
g13
(igraphp
TypeNode
p292
(dp293
g25
I0
sg26
I00
sg19
VArtist
p294
sg16
I4
sg18
Vhttp://dbpedia.org/ontology/Artist
p295
sg17
I-1
sg29
I01
sg30
g124
sbssVhttp://dbpedia.org/ontology/Disease@http://dbpedia.org/property/subject
p296
(dp297
g13
(igraphp
TypeNode
p298
(dp299
g25
I0
sg26
I00
sg19
VDisease
p300
sg16
I1
sg18
Vhttp://dbpedia.org/ontology/Disease
p301
sg17
I-1
sg29
I01
sg30
g51
sbssVhttp://dbpedia.org/ontology/Activity@http://dbpedia.org/property/subject
p302
(dp303
g13
(igraphp
TypeNode
p304
(dp305
g25
I0
sg26
I00
sg19
VActivity
p306
sg16
I1
sg18
Vhttp://dbpedia.org/ontology/Activity
p307
sg17
I-1
sg29
I01
sg30
g51
sbssVhttp://dbpedia.org/ontology/Sport@http://dbpedia.org/property/subject
p308
(dp309
g13
(igraphp
TypeNode
p310
(dp311
g25
I0
sg26
I00
sg19
VSport
p312
sg16
I1
sg18
Vhttp://dbpedia.org/ontology/Sport
p313
sg17
I-1
sg29
I01
sg30
g51
sbssVhttp://dbpedia.org/property/name
p314
(dp315
g13
(igraphp
PropertyNode
p316
(dp317
g16
I100
sg17
I-1
sg18
g314
sg19
Vname
p318
sbssVhttp://dbpedia.org/ontology/Genre@http://dbpedia.org/property/medium
p319
(dp320
g13
(igraphp
TypeNode
p321
(dp322
g25
I0
sg26
I00
sg19
VGenre
p323
sg16
I43
sg18
Vhttp://dbpedia.org/ontology/Genre
p324
sg17
I-1
sg29
I01
sg30
g185
sbssVhttp://dbpedia.org/ontology/PopulatedPlace@http://dbpedia.org/property/birthPlace
p325
(dp326
g13
(igraphp
TypeNode
p327
(dp328
g25
I0
sg26
I00
sg19
VPopulatedPlace
p329
sg16
I41
sg18
Vhttp://dbpedia.org/ontology/PopulatedPlace
p330
sg17
I-1
sg29
I01
sg30
g65
sbssVhttp://dbpedia.org/ontology/Agent@http://dbpedia.org/property/spouse
p331
(dp332
g13
(igraphp
TypeNode
p333
(dp334
g25
I0
sg26
I00
sg19
VAgent
p335
sg16
I24
sg18
Vhttp://dbpedia.org/ontology/Agent
p336
sg17
I-1
sg29
I01
sg30
g124
sbssVhttp://dbpedia.org/property/active
p337
(dp338
g13
(igraphp
PropertyNode
p339
(dp340
g16
I100
sg17
I-1
sg18
g337
sg19
Vactive
p341
sbssVhttp://dbpedia.org/ontology/Person@http://dbpedia.org/property/notableWork
p342
(dp343
g13
(igraphp
TypeNode
p344
(dp345
g25
I0
sg26
I00
sg19
VPerson
p346
sg16
I1
sg18
Vhttp://dbpedia.org/ontology/Person
p347
sg17
I-1
sg29
I01
sg30
g58
sbssVhttp://dbpedia.org/property/id
p348
(dp349
g13
(igraphp
PropertyNode
p350
(dp351
g16
I100
sg17
I-1
sg18
g348
sg19
Vid
p352
sbsssS'edge_key_dict_factory'
p353
c__builtin__
dict
p354
sS'node_dict_factory'
p355
g354
sS'edge_attr_dict_factory'
p356
g354
sS'succ'
p357
(dp358
g11
(dp359
sg21
(dp360
Vhttp://dbpedia.org/ontology/TopicalConcept@http://dbpedia.org/property/genre
p361
(dp362
Vhttp://dbpedia.org/ontology/wikiPageWikiLink
p363
(dp364
g16
I6
ssssg32
(dp365
g11
(dp366
I0
(dp367
ssg129
(dp368
I0
(dp369
ssg140
(dp370
I0
(dp371
ssg34
(dp372
I0
(dp373
ssg78
(dp374
I0
(dp375
ssg314
(dp376
I0
(dp377
ssg58
(dp378
I0
(dp379
ssg337
(dp380
I0
(dp381
ssg65
(dp382
I0
(dp383
ssg185
(dp384
I0
(dp385
ssg190
(dp386
I0
(dp387
ssg348
(dp388
I0
(dp389
ssg207
(dp390
I0
(dp391
ssg31
(dp392
I0
(dp393
ssg97
(dp394
I0
(dp395
ssg124
(dp396
I0
(dp397
ssg51
(dp398
I0
(dp399
sssg34
(dp400
sg39
(dp401
Vhttp://dbpedia.org/ontology/Genre@http://dbpedia.org/property/genre
p402
(dp403
Vhttp://dbpedia.org/ontology/wikiPageWikiLink
p404
(dp405
g16
I6
ssssg45
(dp406
sg52
(dp407
sg59
(dp408
Vhttp://dbpedia.org/ontology/Country@http://dbpedia.org/property/birthPlace
p409
(dp410
Vhttp://dbpedia.org/ontology/country
p411
(dp412
g16
I14
ssVhttp://dbpedia.org/ontology/wikiPageWikiLink
p413
(dp414
g16
I14
sssVhttp://dbpedia.org/ontology/Settlement@http://dbpedia.org/property/birthPlace
p415
(dp416
Vhttp://dbpedia.org/ontology/isPartOf
p417
(dp418
g16
I4
ssVhttp://dbpedia.org/ontology/wikiPageWikiLink
p419
(dp420
g16
I4
sssVhttp://dbpedia.org/ontology/AdministrativeRegion@http://dbpedia.org/property/birthPlace
p421
(dp422
Vhttp://dbpedia.org/ontology/isPartOf
p423
(dp424
g16
I9
ssVhttp://dbpedia.org/ontology/wikiPageWikiLink
p425
(dp426
g16
I9
sssVhttp://dbpedia.org/ontology/Place@http://dbpedia.org/property/birthPlace
p427
(dp428
Vhttp://dbpedia.org/ontology/isPartOf
p429
(dp430
g16
I12
ssVhttp://dbpedia.org/ontology/country
p431
(dp432
g16
I14
ssVhttp://dbpedia.org/ontology/wikiPageWikiLink
p433
(dp434
g16
I24
sssVhttp://dbpedia.org/ontology/Location@http://dbpedia.org/property/birthPlace
p435
(dp436
Vhttp://dbpedia.org/ontology/isPartOf
p437
(dp438
g16
I12
ssVhttp://dbpedia.org/ontology/country
p439
(dp440
g16
I14
ssVhttp://dbpedia.org/ontology/wikiPageWikiLink
p441
(dp442
g16
I24
sssVhttp://dbpedia.org/ontology/PopulatedPlace@http://dbpedia.org/property/birthPlace
p443
(dp444
Vhttp://dbpedia.org/ontology/isPartOf
p445
(dp446
g16
I12
ssVhttp://dbpedia.org/ontology/country
p447
(dp448
g16
I14
ssVhttp://dbpedia.org/ontology/wikiPageWikiLink
p449
(dp450
g16
I24
sssVhttp://dbpedia.org/ontology/Region@http://dbpedia.org/property/birthPlace
p451
(dp452
Vhttp://dbpedia.org/ontology/isPartOf
p453
(dp454
g16
I9
ssVhttp://dbpedia.org/ontology/wikiPageWikiLink
p455
(dp456
g16
I9
ssssg66
(dp457
sg72
(dp458
sg79
(dp459
sg85
(dp460
sg91
(dp461
sg97
(dp462
sg31
(dp463
g169
(dp464
I0
(dp465
ssg21
(dp466
I0
(dp467
ssg39
(dp468
I0
(dp469
sssg106
(dp470
sg112
(dp471
Vhttp://dbpedia.org/ontology/TelevisionShow@http://dbpedia.org/property/notableWork
p472
(dp473
Vhttp://dbpedia.org/ontology/wikiPageWikiLink
p474
(dp475
g16
I4
ssVhttp://dbpedia.org/ontology/related
p476
(dp477
g16
I6
ssssg118
(dp478
sg51
(dp479
g45
(dp480
I0
(dp481
ssg296
(dp482
I0
(dp483
ssg302
(dp484
I0
(dp485
ssg278
(dp486
I0
(dp487
ssg308
(dp488
I0
(dp489
sssg129
(dp490
sg134
(dp491
Vhttp://dbpedia.org/ontology/Country@http://dbpedia.org/property/birthPlace
p492
(dp493
Vhttp://dbpedia.org/ontology/country
p494
(dp495
g16
I16
ssVhttp://dbpedia.org/ontology/wikiPageWikiLink
p496
(dp497
g16
I16
sssVhttp://dbpedia.org/ontology/AdministrativeRegion@http://dbpedia.org/property/birthPlace
p498
(dp499
Vhttp://dbpedia.org/ontology/isPartOf
p500
(dp501
g16
I11
ssVhttp://dbpedia.org/ontology/wikiPageWikiLink
p502
(dp503
g16
I11
sssVhttp://dbpedia.org/ontology/Place@http://dbpedia.org/property/birthPlace
p504
(dp505
Vhttp://dbpedia.org/ontology/isPartOf
p506
(dp507
g16
I14
ssVhttp://dbpedia.org/ontology/country
p508
(dp509
g16
I16
ssVhttp://dbpedia.org/ontology/wikiPageWikiLink
p510
(dp511
g16
I28
sssVhttp://dbpedia.org/ontology/Location@http://dbpedia.org/property/birthPlace
p512
(dp513
Vhttp://dbpedia.org/ontology/isPartOf
p514
(dp515
g16
I14
ssVhttp://dbpedia.org/ontology/country
p516
(dp517
g16
I16
ssVhttp://dbpedia.org/ontology/wikiPageWikiLink
p518
(dp519
g16
I28
sssVhttp://dbpedia.org/ontology/City@http://dbpedia.org/property/birthPlace
p520
(dp521
Vhttp://dbpedia.org/ontology/isPartOf
p522
(dp523
g16
I4
ssVhttp://dbpedia.org/ontology/wikiPageWikiLink
p524
(dp525
g16
I4
sssVhttp://dbpedia.org/ontology/PopulatedPlace@http://dbpedia.org/property/birthPlace
p526
(dp527
Vhttp://dbpedia.org/ontology/isPartOf
p528
(dp529
g16
I14
ssVhttp://dbpedia.org/ontology/country
p530
(dp531
g16
I16
ssVhttp://dbpedia.org/ontology/wikiPageWikiLink
p532
(dp533
g16
I28
sssVhttp://dbpedia.org/ontology/Region@http://dbpedia.org/property/birthPlace
p534
(dp535
Vhttp://dbpedia.org/ontology/isPartOf
p536
(dp537
g16
I11
ssVhttp://dbpedia.org/ontology/wikiPageWikiLink
p538
(dp539
g16
I11
ssssg140
(dp540
sg145
(dp541
Vhttp://dbpedia.org/ontology/Work@http://dbpedia.org/property/notableWork
p542
(dp543
Vhttp://dbpedia.org/ontology/wikiPageWikiLink
p544
(dp545
g16
I4
ssVhttp://dbpedia.org/ontology/related
p546
(dp547
g16
I6
ssssg151
(dp548
Vhttp://dbpedia.org/ontology/Country@http://dbpedia.org/property/birthPlace
p549
(dp550
Vhttp://dbpedia.org/ontology/country
p551
(dp552
g16
I18
ssVhttp://dbpedia.org/ontology/wikiPageWikiLink
p553
(dp554
g16
I19
sssVhttp://dbpedia.org/ontology/Settlement@http://dbpedia.org/property/birthPlace
p555
(dp556
Vhttp://dbpedia.org/ontology/isPartOf
p557
(dp558
g16
I4
ssVhttp://dbpedia.org/ontology/wikiPageWikiLink
p559
(dp560
g16
I32
ssVhttp://dbpedia.org/ontology/largestCity
p561
(dp562
g16
I12
ssVhttp://dbpedia.org/ontology/capital
p563
(dp564
g16
I10
sssVhttp://dbpedia.org/ontology/AdministrativeRegion@http://dbpedia.org/property/birthPlace
p565
(dp566
Vhttp://dbpedia.org/ontology/isPartOf
p567
(dp568
g16
I11
ssVhttp://dbpedia.org/ontology/wikiPageWikiLink
p569
(dp570
g16
I20
sssVhttp://dbpedia.org/ontology/Location@http://dbpedia.org/property/birthPlace
p571
(dp572
Vhttp://dbpedia.org/ontology/isPartOf
p573
(dp574
g16
I14
ssVhttp://dbpedia.org/ontology/country
p575
(dp576
g16
I18
ssVhttp://dbpedia.org/ontology/wikiPageWikiLink
p577
(dp578
g16
I60
ssVhttp://dbpedia.org/ontology/largestCity
p579
(dp580
g16
I12
ssVhttp://dbpedia.org/ontology/capital
p581
(dp582
g16
I10
sssVhttp://dbpedia.org/ontology/City@http://dbpedia.org/property/birthPlace
p583
(dp584
Vhttp://dbpedia.org/ontology/isPartOf
p585
(dp586
g16
I4
ssVhttp://dbpedia.org/ontology/wikiPageWikiLink
p587
(dp588
g16
I28
ssVhttp://dbpedia.org/ontology/largestCity
p589
(dp590
g16
I12
ssVhttp://dbpedia.org/ontology/capital
p591
(dp592
g16
I6
sssVhttp://dbpedia.org/ontology/PopulatedPlace@http://dbpedia.org/property/birthPlace
p593
(dp594
Vhttp://dbpedia.org/ontology/isPartOf
p595
(dp596
g16
I14
ssVhttp://dbpedia.org/ontology/country
p597
(dp598
g16
I18
ssVhttp://dbpedia.org/ontology/wikiPageWikiLink
p599
(dp600
g16
I60
ssVhttp://dbpedia.org/ontology/largestCity
p601
(dp602
g16
I12
ssVhttp://dbpedia.org/ontology/capital
p603
(dp604
g16
I10
sssVhttp://dbpedia.org/ontology/Region@http://dbpedia.org/property/birthPlace
p605
(dp606
Vhttp://dbpedia.org/ontology/isPartOf
p607
(dp608
g16
I11
ssVhttp://dbpedia.org/ontology/wikiPageWikiLink
p609
(dp610
g16
I20
ssssg157
(dp611
sg163
(dp612
sg169
(dp613
sg175
(dp614
sg65
(dp615
g272
(dp616
I0
(dp617
ssg134
(dp618
I0
(dp619
ssg228
(dp620
I0
(dp621
ssg240
(dp622
I0
(dp623
ssg151
(dp624
I0
(dp625
ssg252
(dp626
I0
(dp627
ssg59
(dp628
I0
(dp629
ssg325
(dp630
I0
(dp631
ssg85
(dp632
I0
(dp633
ssg195
(dp634
I0
(dp635
sssg185
(dp636
g284
(dp637
I0
(dp638
ssg319
(dp639
I0
(dp640
sssg190
(dp641
sg195
(dp642
Vhttp://dbpedia.org/ontology/Country@http://dbpedia.org/property/birthPlace
p643
(dp644
Vhttp://dbpedia.org/ontology/country
p645
(dp646
g16
I6
ssVhttp://dbpedia.org/ontology/wikiPageWikiLink
p647
(dp648
g16
I6
sssVhttp://dbpedia.org/ontology/Settlement@http://dbpedia.org/property/birthPlace
p649
(dp650
Vhttp://dbpedia.org/ontology/wikiPageWikiLink
p651
(dp652
g16
I12
ssVhttp://dbpedia.org/ontology/largestCity
p653
(dp654
g16
I8
ssVhttp://dbpedia.org/ontology/capital
p655
(dp656
g16
I2
sssVhttp://dbpedia.org/ontology/Place@http://dbpedia.org/property/birthPlace
p657
(dp658
Vhttp://dbpedia.org/ontology/country
p659
(dp660
g16
I6
ssVhttp://dbpedia.org/ontology/wikiPageWikiLink
p661
(dp662
g16
I15
ssVhttp://dbpedia.org/ontology/largestCity
p663
(dp664
g16
I8
ssVhttp://dbpedia.org/ontology/capital
p665
(dp666
g16
I2
sssVhttp://dbpedia.org/ontology/Location@http://dbpedia.org/property/birthPlace
p667
(dp668
Vhttp://dbpedia.org/ontology/country
p669
(dp670
g16
I6
ssVhttp://dbpedia.org/ontology/wikiPageWikiLink
p671
(dp672
g16
I15
ssVhttp://dbpedia.org/ontology/largestCity
p673
(dp674
g16
I8
ssVhttp://dbpedia.org/ontology/capital
p675
(dp676
g16
I2
sssVhttp://dbpedia.org/ontology/City@http://dbpedia.org/property/birthPlace
p677
(dp678
Vhttp://dbpedia.org/ontology/wikiPageWikiLink
p679
(dp680
g16
I10
ssVhttp://dbpedia.org/ontology/largestCity
p681
(dp682
g16
I8
sssVhttp://dbpedia.org/ontology/PopulatedPlace@http://dbpedia.org/property/birthPlace
p683
(dp684
Vhttp://dbpedia.org/ontology/country
p685
(dp686
g16
I6
ssVhttp://dbpedia.org/ontology/wikiPageWikiLink
p687
(dp688
g16
I15
ssVhttp://dbpedia.org/ontology/largestCity
p689
(dp690
g16
I8
ssVhttp://dbpedia.org/ontology/capital
p691
(dp692
g16
I2
ssssg201
(dp693
sg207
(dp694
sg212
(dp695
sg124
(dp696
g175
(dp697
I0
(dp698
ssg234
(dp699
I0
(dp700
ssg331
(dp701
I0
(dp702
ssg118
(dp703
I0
(dp704
ssg290
(dp705
I0
(dp706
sssg222
(dp707
sg228
(dp708
sg234
(dp709
sg240
(dp710
Vhttp://dbpedia.org/ontology/Country@http://dbpedia.org/property/birthPlace
p711
(dp712
Vhttp://dbpedia.org/ontology/country
p713
(dp714
g16
I6
ssVhttp://dbpedia.org/ontology/wikiPageWikiLink
p715
(dp716
g16
I6
sssVhttp://dbpedia.org/ontology/Settlement@http://dbpedia.org/property/birthPlace
p717
(dp718
Vhttp://dbpedia.org/ontology/wikiPageWikiLink
p719
(dp720
g16
I12
ssVhttp://dbpedia.org/ontology/largestCity
p721
(dp722
g16
I8
ssVhttp://dbpedia.org/ontology/capital
p723
(dp724
g16
I2
sssVhttp://dbpedia.org/ontology/Place@http://dbpedia.org/property/birthPlace
p725
(dp726
Vhttp://dbpedia.org/ontology/country
p727
(dp728
g16
I6
ssVhttp://dbpedia.org/ontology/wikiPageWikiLink
p729
(dp730
g16
I15
ssVhttp://dbpedia.org/ontology/largestCity
p731
(dp732
g16
I8
ssVhttp://dbpedia.org/ontology/capital
p733
(dp734
g16
I2
sssVhttp://dbpedia.org/ontology/Location@http://dbpedia.org/property/birthPlace
p735
(dp736
Vhttp://dbpedia.org/ontology/country
p737
(dp738
g16
I6
ssVhttp://dbpedia.org/ontology/wikiPageWikiLink
p739
(dp740
g16
I15
ssVhttp://dbpedia.org/ontology/largestCity
p741
(dp742
g16
I8
ssVhttp://dbpedia.org/ontology/capital
p743
(dp744
g16
I2
sssVhttp://dbpedia.org/ontology/City@http://dbpedia.org/property/birthPlace
p745
(dp746
Vhttp://dbpedia.org/ontology/wikiPageWikiLink
p747
(dp748
g16
I10
ssVhttp://dbpedia.org/ontology/largestCity
p749
(dp750
g16
I8
sssVhttp://dbpedia.org/ontology/PopulatedPlace@http://dbpedia.org/property/birthPlace
p751
(dp752
Vhttp://dbpedia.org/ontology/country
p753
(dp754
g16
I6
ssVhttp://dbpedia.org/ontology/wikiPageWikiLink
p755
(dp756
g16
I15
ssVhttp://dbpedia.org/ontology/largestCity
p757
(dp758
g16
I8
ssVhttp://dbpedia.org/ontology/capital
p759
(dp760
g16
I2
ssssg246
(dp761
sg252
(dp762
Vhttp://dbpedia.org/ontology/Country@http://dbpedia.org/property/birthPlace
p763
(dp764
Vhttp://dbpedia.org/ontology/country
p765
(dp766
g16
I18
ssVhttp://dbpedia.org/ontology/wikiPageWikiLink
p767
(dp768
g16
I19
sssVhttp://dbpedia.org/ontology/Settlement@http://dbpedia.org/property/birthPlace
p769
(dp770
Vhttp://dbpedia.org/ontology/isPartOf
p771
(dp772
g16
I4
ssVhttp://dbpedia.org/ontology/wikiPageWikiLink
p773
(dp774
g16
I32
ssVhttp://dbpedia.org/ontology/largestCity
p775
(dp776
g16
I12
ssVhttp://dbpedia.org/ontology/capital
p777
(dp778
g16
I10
sssVhttp://dbpedia.org/ontology/AdministrativeRegion@http://dbpedia.org/property/birthPlace
p779
(dp780
Vhttp://dbpedia.org/ontology/isPartOf
p781
(dp782
g16
I11
ssVhttp://dbpedia.org/ontology/wikiPageWikiLink
p783
(dp784
g16
I20
sssVhttp://dbpedia.org/ontology/Place@http://dbpedia.org/property/birthPlace
p785
(dp786
Vhttp://dbpedia.org/ontology/isPartOf
p787
(dp788
g16
I14
ssVhttp://dbpedia.org/ontology/country
p789
(dp790
g16
I18
ssVhttp://dbpedia.org/ontology/wikiPageWikiLink
p791
(dp792
g16
I60
ssVhttp://dbpedia.org/ontology/largestCity
p793
(dp794
g16
I12
ssVhttp://dbpedia.org/ontology/capital
p795
(dp796
g16
I10
sssVhttp://dbpedia.org/ontology/City@http://dbpedia.org/property/birthPlace
p797
(dp798
Vhttp://dbpedia.org/ontology/isPartOf
p799
(dp800
g16
I4
ssVhttp://dbpedia.org/ontology/wikiPageWikiLink
p801
(dp802
g16
I28
ssVhttp://dbpedia.org/ontology/largestCity
p803
(dp804
g16
I12
ssVhttp://dbpedia.org/ontology/capital
p805
(dp806
g16
I6
sssVhttp://dbpedia.org/ontology/PopulatedPlace@http://dbpedia.org/property/birthPlace
p807
(dp808
Vhttp://dbpedia.org/ontology/isPartOf
p809
(dp810
g16
I14
ssVhttp://dbpedia.org/ontology/country
p811
(dp812
g16
I18
ssVhttp://dbpedia.org/ontology/wikiPageWikiLink
p813
(dp814
g16
I60
ssVhttp://dbpedia.org/ontology/largestCity
p815
(dp816
g16
I12
ssVhttp://dbpedia.org/ontology/capital
p817
(dp818
g16
I10
sssVhttp://dbpedia.org/ontology/Region@http://dbpedia.org/property/birthPlace
p819
(dp820
Vhttp://dbpedia.org/ontology/isPartOf
p821
(dp822
g16
I11
ssVhttp://dbpedia.org/ontology/wikiPageWikiLink
p823
(dp824
g16
I20
ssssg78
(dp825
g246
(dp826
I0
(dp827
ssg79
(dp828
I0
(dp829
ssg157
(dp830
I0
(dp831
ssg262
(dp832
I0
(dp833
ssg72
(dp834
I0
(dp835
sssg262
(dp836
sg58
(dp837
g222
(dp838
I0
(dp839
ssg212
(dp840
I0
(dp841
ssg145
(dp842
I0
(dp843
ssg52
(dp844
I0
(dp845
ssg163
(dp846
I0
(dp847
ssg66
(dp848
I0
(dp849
ssg201
(dp850
I0
(dp851
ssg91
(dp852
I0
(dp853
ssg342
(dp854
I0
(dp855
ssg106
(dp856
I0
(dp857
ssg112
(dp858
I0
(dp859
sssg272
(dp860
Vhttp://dbpedia.org/ontology/Settlement@http://dbpedia.org/property/birthPlace
p861
(dp862
Vhttp://dbpedia.org/ontology/wikiPageWikiLink
p863
(dp864
g16
I20
ssVhttp://dbpedia.org/ontology/largestCity
p865
(dp866
g16
I4
ssVhttp://dbpedia.org/ontology/capital
p867
(dp868
g16
I8
sssVhttp://dbpedia.org/ontology/AdministrativeRegion@http://dbpedia.org/property/birthPlace
p869
(dp870
Vhttp://dbpedia.org/ontology/wikiPageWikiLink
p871
(dp872
g16
I12
sssVhttp://dbpedia.org/ontology/Place@http://dbpedia.org/property/birthPlace
p873
(dp874
Vhttp://dbpedia.org/ontology/wikiPageWikiLink
p875
(dp876
g16
I25
ssVhttp://dbpedia.org/ontology/largestCity
p877
(dp878
g16
I4
ssVhttp://dbpedia.org/ontology/capital
p879
(dp880
g16
I8
sssVhttp://dbpedia.org/ontology/Location@http://dbpedia.org/property/birthPlace
p881
(dp882
Vhttp://dbpedia.org/ontology/wikiPageWikiLink
p883
(dp884
g16
I25
ssVhttp://dbpedia.org/ontology/largestCity
p885
(dp886
g16
I4
ssVhttp://dbpedia.org/ontology/capital
p887
(dp888
g16
I8
sssVhttp://dbpedia.org/ontology/City@http://dbpedia.org/property/birthPlace
p889
(dp890
Vhttp://dbpedia.org/ontology/wikiPageWikiLink
p891
(dp892
g16
I18
ssVhttp://dbpedia.org/ontology/largestCity
p893
(dp894
g16
I4
ssVhttp://dbpedia.org/ontology/capital
p895
(dp896
g16
I6
sssVhttp://dbpedia.org/ontology/PopulatedPlace@http://dbpedia.org/property/birthPlace
p897
(dp898
Vhttp://dbpedia.org/ontology/wikiPageWikiLink
p899
(dp900
g16
I25
ssVhttp://dbpedia.org/ontology/largestCity
p901
(dp902
g16
I4
ssVhttp://dbpedia.org/ontology/capital
p903
(dp904
g16
I8
sssVhttp://dbpedia.org/ontology/Region@http://dbpedia.org/property/birthPlace
p905
(dp906
Vhttp://dbpedia.org/ontology/wikiPageWikiLink
p907
(dp908
g16
I12
ssssg278
(dp909
sg284
(dp910
sg290
(dp911
sg296
(dp912
sg302
(dp913
sg308
(dp914
sg314
(dp915
sg319
(dp916
sg325
(dp917
Vhttp://dbpedia.org/ontology/Settlement@http://dbpedia.org/property/birthPlace
p918
(dp919
Vhttp://dbpedia.org/ontology/isPartOf
p920
(dp921
g16
I4
ssVhttp://dbpedia.org/ontology/wikiPageWikiLink
p922
(dp923
g16
I32
ssVhttp://dbpedia.org/ontology/largestCity
p924
(dp925
g16
I12
ssVhttp://dbpedia.org/ontology/capital
p926
(dp927
g16
I10
sssVhttp://dbpedia.org/ontology/AdministrativeRegion@http://dbpedia.org/property/birthPlace
p928
(dp929
Vhttp://dbpedia.org/ontology/isPartOf
p930
(dp931
g16
I11
ssVhttp://dbpedia.org/ontology/wikiPageWikiLink
p932
(dp933
g16
I20
sssVhttp://dbpedia.org/ontology/Place@http://dbpedia.org/property/birthPlace
p934
(dp935
Vhttp://dbpedia.org/ontology/isPartOf
p936
(dp937
g16
I14
ssVhttp://dbpedia.org/ontology/country
p938
(dp939
g16
I18
ssVhttp://dbpedia.org/ontology/wikiPageWikiLink
p940
(dp941
g16
I60
ssVhttp://dbpedia.org/ontology/largestCity
p942
(dp943
g16
I12
ssVhttp://dbpedia.org/ontology/capital
p944
(dp945
g16
I10
sssVhttp://dbpedia.org/ontology/Location@http://dbpedia.org/property/birthPlace
p946
(dp947
Vhttp://dbpedia.org/ontology/isPartOf
p948
(dp949
g16
I14
ssVhttp://dbpedia.org/ontology/country
p950
(dp951
g16
I18
ssVhttp://dbpedia.org/ontology/wikiPageWikiLink
p952
(dp953
g16
I60
ssVhttp://dbpedia.org/ontology/largestCity
p954
(dp955
g16
I12
ssVhttp://dbpedia.org/ontology/capital
p956
(dp957
g16
I10
sssVhttp://dbpedia.org/ontology/City@http://dbpedia.org/property/birthPlace
p958
(dp959
Vhttp://dbpedia.org/ontology/isPartOf
p960
(dp961
g16
I4
ssVhttp://dbpedia.org/ontology/wikiPageWikiLink
p962
(dp963
g16
I28
ssVhttp://dbpedia.org/ontology/largestCity
p964
(dp965
g16
I12
ssVhttp://dbpedia.org/ontology/capital
p966
(dp967
g16
I6
sssVhttp://dbpedia.org/ontology/Country@http://dbpedia.org/property/birthPlace
p968
(dp969
Vhttp://dbpedia.org/ontology/country
p970
(dp971
g16
I18
ssVhttp://dbpedia.org/ontology/wikiPageWikiLink
p972
(dp973
g16
I19
sssVhttp://dbpedia.org/ontology/Region@http://dbpedia.org/property/birthPlace
p974
(dp975
Vhttp://dbpedia.org/ontology/isPartOf
p976
(dp977
g16
I11
ssVhttp://dbpedia.org/ontology/wikiPageWikiLink
p978
(dp979
g16
I20
ssssg331
(dp980
sg337
(dp981
sg342
(dp982
sg348
(dp983
ssS'edge'
p984
g358
sg2
(dp985
sS'adjlist_dict_factory'
p986
g354
sS'adj'
p987
g358
sS'pred'
p988
(dp989
g11
(dp990
g32
g366
ssg21
(dp991
g31
g466
sVhttp://dbpedia.org/ontology/TopicalConcept@http://dbpedia.org/property/genre
p992
g403
ssg32
(dp993
sg34
(dp994
g32
g372
ssg39
(dp995
g31
g468
sVhttp://dbpedia.org/ontology/Genre@http://dbpedia.org/property/genre
p996
g362
ssg45
(dp997
g51
g480
ssg52
(dp998
g58
g844
ssg59
(dp999
Vhttp://dbpedia.org/ontology/Country@http://dbpedia.org/property/birthPlace
p1000
g890
sVhttp://dbpedia.org/ontology/Settlement@http://dbpedia.org/property/birthPlace
p1001
g521
sVhttp://dbpedia.org/ontology/AdministrativeRegion@http://dbpedia.org/property/birthPlace
p1002
g746
sVhttp://dbpedia.org/ontology/Place@http://dbpedia.org/property/birthPlace
p1003
g584
sVhttp://dbpedia.org/ontology/Location@http://dbpedia.org/property/birthPlace
p1004
g798
sVhttp://dbpedia.org/ontology/PopulatedPlace@http://dbpedia.org/property/birthPlace
p1005
g959
sg65
g628
sVhttp://dbpedia.org/ontology/Region@http://dbpedia.org/property/birthPlace
p1006
g678
ssg66
(dp1007
g58
g848
ssg72
(dp1008
g78
g834
ssg79
(dp1009
g78
g828
ssg85
(dp1010
g65
g632
ssg91
(dp1011
g58
g852
ssg97
(dp1012
g32
g394
ssg31
(dp1013
g32
g392
ssg106
(dp1014
g58
g856
ssg112
(dp1015
Vhttp://dbpedia.org/ontology/TelevisionShow@http://dbpedia.org/property/notableWork
p1016
g543
sg58
g858
ssg118
(dp1017
g124
g703
ssg51
(dp1018
g32
g398
ssg129
(dp1019
g32
g368
ssg134
(dp1020
Vhttp://dbpedia.org/ontology/Country@http://dbpedia.org/property/birthPlace
p1021
g862
sVhttp://dbpedia.org/ontology/AdministrativeRegion@http://dbpedia.org/property/birthPlace
p1022
g718
sVhttp://dbpedia.org/ontology/Place@http://dbpedia.org/property/birthPlace
p1023
g556
sVhttp://dbpedia.org/ontology/Location@http://dbpedia.org/property/birthPlace
p1024
g770
sVhttp://dbpedia.org/ontology/City@http://dbpedia.org/property/birthPlace
p1025
g416
sVhttp://dbpedia.org/ontology/PopulatedPlace@http://dbpedia.org/property/birthPlace
p1026
g919
sg65
g618
sVhttp://dbpedia.org/ontology/Region@http://dbpedia.org/property/birthPlace
p1027
g650
ssg140
(dp1028
g32
g370
ssg145
(dp1029
Vhttp://dbpedia.org/ontology/Work@http://dbpedia.org/property/notableWork
p1030
g473
sg58
g842
ssg151
(dp1031
Vhttp://dbpedia.org/ontology/Country@http://dbpedia.org/property/birthPlace
p1032
g874
sVhttp://dbpedia.org/ontology/Settlement@http://dbpedia.org/property/birthPlace
p1033
g505
sVhttp://dbpedia.org/ontology/AdministrativeRegion@http://dbpedia.org/property/birthPlace
p1034
g726
sVhttp://dbpedia.org/ontology/Location@http://dbpedia.org/property/birthPlace
p1035
g786
sVhttp://dbpedia.org/ontology/City@http://dbpedia.org/property/birthPlace
p1036
g428
sVhttp://dbpedia.org/ontology/PopulatedPlace@http://dbpedia.org/property/birthPlace
p1037
g935
sg65
g624
sVhttp://dbpedia.org/ontology/Region@http://dbpedia.org/property/birthPlace
p1038
g658
ssg157
(dp1039
g78
g830
ssg163
(dp1040
g58
g846
ssg169
(dp1041
g31
g464
ssg175
(dp1042
g124
g697
ssg65
(dp1043
g32
g382
ssg185
(dp1044
g32
g384
ssg190
(dp1045
g32
g386
ssg195
(dp1046
Vhttp://dbpedia.org/ontology/Country@http://dbpedia.org/property/birthPlace
p1047
g906
sVhttp://dbpedia.org/ontology/Settlement@http://dbpedia.org/property/birthPlace
p1048
g535
sVhttp://dbpedia.org/ontology/Place@http://dbpedia.org/property/birthPlace
p1049
g606
sVhttp://dbpedia.org/ontology/Location@http://dbpedia.org/property/birthPlace
p1050
g820
sVhttp://dbpedia.org/ontology/City@http://dbpedia.org/property/birthPlace
p1051
g452
sVhttp://dbpedia.org/ontology/PopulatedPlace@http://dbpedia.org/property/birthPlace
p1052
g975
sg65
g634
ssg201
(dp1053
g58
g850
ssg207
(dp1054
g32
g390
ssg212
(dp1055
g58
g840
ssg124
(dp1056
g32
g396
ssg222
(dp1057
g58
g838
ssg228
(dp1058
g65
g620
ssg234
(dp1059
g124
g699
ssg240
(dp1060
Vhttp://dbpedia.org/ontology/Country@http://dbpedia.org/property/birthPlace
p1061
g870
sVhttp://dbpedia.org/ontology/Settlement@http://dbpedia.org/property/birthPlace
p1062
g499
sVhttp://dbpedia.org/ontology/Place@http://dbpedia.org/property/birthPlace
p1063
g566
sVhttp://dbpedia.org/ontology/Location@http://dbpedia.org/property/birthPlace
p1064
g780
sVhttp://dbpedia.org/ontology/City@http://dbpedia.org/property/birthPlace
p1065
g422
sVhttp://dbpedia.org/ontology/PopulatedPlace@http://dbpedia.org/property/birthPlace
p1066
g929
sg65
g622
ssg246
(dp1067
g78
g826
ssg252
(dp1068
Vhttp://dbpedia.org/ontology/Country@http://dbpedia.org/property/birthPlace
p1069
g882
sVhttp://dbpedia.org/ontology/Settlement@http://dbpedia.org/property/birthPlace
p1070
g513
sVhttp://dbpedia.org/ontology/AdministrativeRegion@http://dbpedia.org/property/birthPlace
p1071
g736
sVhttp://dbpedia.org/ontology/Place@http://dbpedia.org/property/birthPlace
p1072
g572
sVhttp://dbpedia.org/ontology/City@http://dbpedia.org/property/birthPlace
p1073
g436
sVhttp://dbpedia.org/ontology/PopulatedPlace@http://dbpedia.org/property/birthPlace
p1074
g947
sg65
g626
sVhttp://dbpedia.org/ontology/Region@http://dbpedia.org/property/birthPlace
p1075
g668
ssg78
(dp1076
g32
g374
ssg262
(dp1077
g78
g832
ssg58
(dp1078
g32
g378
ssg272
(dp1079
Vhttp://dbpedia.org/ontology/Settlement@http://dbpedia.org/property/birthPlace
p1080
g493
sVhttp://dbpedia.org/ontology/AdministrativeRegion@http://dbpedia.org/property/birthPlace
p1081
g712
sVhttp://dbpedia.org/ontology/Place@http://dbpedia.org/property/birthPlace
p1082
g550
sVhttp://dbpedia.org/ontology/Location@http://dbpedia.org/property/birthPlace
p1083
g764
sVhttp://dbpedia.org/ontology/City@http://dbpedia.org/property/birthPlace
p1084
g410
sVhttp://dbpedia.org/ontology/PopulatedPlace@http://dbpedia.org/property/birthPlace
p1085
g969
sg65
g616
sVhttp://dbpedia.org/ontology/Region@http://dbpedia.org/property/birthPlace
p1086
g644
ssg278
(dp1087
g51
g486
ssg284
(dp1088
g185
g637
ssg290
(dp1089
g124
g705
ssg296
(dp1090
g51
g482
ssg302
(dp1091
g51
g484
ssg308
(dp1092
g51
g488
ssg314
(dp1093
g32
g376
ssg319
(dp1094
g185
g639
ssg325
(dp1095
Vhttp://dbpedia.org/ontology/Settlement@http://dbpedia.org/property/birthPlace
p1096
g527
sVhttp://dbpedia.org/ontology/AdministrativeRegion@http://dbpedia.org/property/birthPlace
p1097
g752
sVhttp://dbpedia.org/ontology/Place@http://dbpedia.org/property/birthPlace
p1098
g594
sVhttp://dbpedia.org/ontology/Location@http://dbpedia.org/property/birthPlace
p1099
g808
sVhttp://dbpedia.org/ontology/City@http://dbpedia.org/property/birthPlace
p1100
g444
sVhttp://dbpedia.org/ontology/Country@http://dbpedia.org/property/birthPlace
p1101
g898
sg65
g630
sVhttp://dbpedia.org/ontology/Region@http://dbpedia.org/property/birthPlace
p1102
g684
ssg331
(dp1103
g124
g701
ssg337
(dp1104
g32
g380
ssg342
(dp1105
g58
g854
ssg348
(dp1106
g32
g388
sssbsg18
g32
sb.