(dp0
Vhttp://dbpedia.org/property/placeOfDeath
p1
V93819
p2
sVhttp://dbpedia.org/property/awards
p3
V31257
p4
sVhttp://dbpedia.org/property/almaMater
p5
V44843
p6
sVhttp://dbpedia.org/property/birthDate
p7
V262147
p8
sVhttp://dbpedia.org/property/deathDate
p9
V87417
p10
sVhttp://dbpedia.org/property/years
p11
V356689
p12
sVhttp://dbpedia.org/property/residence
p13
V26397
p14
sVhttp://dbpedia.org/property/occupation
p15
V105960
p16
sVhttp://dbpedia.org/property/genre
p17
V38600
p18
sVhttp://dbpedia.org/property/caption
p19
V60237
p20
sVhttp://dbpedia.org/property/spouse
p21
V45426
p22
sVhttp://dbpedia.org/property/manageryears
p23
V29248
p24
sVhttp://dbpedia.org/property/team
p25
V29850
p26
sVhttp://dbpedia.org/property/dateOfBirth
p27
V394656
p28
sVhttp://dbpedia.org/property/termEnd
p29
V38277
p30
sVhttp://dbpedia.org/property/alternativeNames
p31
V37883
p32
sVhttp://dbpedia.org/property/children
p33
V26828
p34
sVhttp://dbpedia.org/property/wordnet_type
p35
V41768
p36
sVhttp://dbpedia.org/property/nationalteam
p37
V37151
p38
sVhttp://dbpedia.org/property/birthPlace
p39
V375820
p40
sVhttp://dbpedia.org/property/after
p41
V56706
p42
sVhttp://dbpedia.org/property/shortDescription
p43
V459556
p44
sVhttp://dbpedia.org/property/placeOfBirth
p45
V347035
p46
sVhttp://dbpedia.org/property/office
p47
V34635
p48
sVhttp://dbpedia.org/property/birthName
p49
V36282
p50
sVhttp://dbpedia.org/property/predecessor
p51
V37031
p52
sVhttp://dbpedia.org/property/nationalyears
p53
V33844
p54
sVhttp://dbpedia.org/property/party
p55
V31338
p56
sVhttp://dbpedia.org/property/nationalgoals
p57
V27404
p58
sVhttp://dbpedia.org/property/nationality
p59
V58695
p60
sVhttp://dbpedia.org/property/deathPlace
p61
V89147
p62
sVhttp://dbpedia.org/property/position
p63
V89480
p64
sVhttp://dbpedia.org/property/goals
p65
V148787
p66
sVhttp://dbpedia.org/property/managerclubs
p67
V27525
p68
sVhttp://dbpedia.org/property/fullname
p69
V61334
p70
sVhttp://dbpedia.org/property/caps
p71
V209784
p72
sVhttp://dbpedia.org/property/youthclubs
p73
V41465
p74
sVhttp://dbpedia.org/property/title
p75
V105176
p76
sVhttp://dbpedia.org/property/nationalcaps
p77
V32952
p78
sVhttp://dbpedia.org/property/yearsActive
p79
V25234
p80
sVhttp://dbpedia.org/property/currentclub
p81
V31436
p82
sVhttp://dbpedia.org/property/name
p83
V799674
p84
sVhttp://dbpedia.org/property/before
p85
V56766
p86
sVhttp://dbpedia.org/property/clubs
p87
V272155
p88
sVhttp://dbpedia.org/property/battles
p89
V24287
p90
sVhttp://dbpedia.org/property/termStart
p91
V48835
p92
sVhttp://dbpedia.org/property/youthyears
p93
V27579
p94
sVhttp://dbpedia.org/property/dateOfDeath
p95
V177763
p96
sVhttp://dbpedia.org/property/imageSize
p97
V25975
p98
sVhttp://dbpedia.org/property/successor
p99
V32577
p100
s.