(dp0
Vhttp://dbpedia.org/property/seatChange
p1
V8707
p2
sVhttp://dbpedia.org/property/score
p3
V43962
p4
sVhttp://dbpedia.org/property/candidate
p5
V74587
p6
sVhttp://dbpedia.org/property/next
p7
V9030
p8
sVhttp://dbpedia.org/property/previousYear
p9
V8493
p10
sVhttp://dbpedia.org/property/place
p11
V19010
p12
sVhttp://dbpedia.org/property/time
p13
V31388
p14
sVhttp://dbpedia.org/property/votes
p15
V71747
p16
sVhttp://dbpedia.org/property/strength
p17
V29339
p18
sVhttp://dbpedia.org/property/popularVote
p19
V17068
p20
sVhttp://dbpedia.org/property/rd1Team
p21
V24537
p22
sVhttp://dbpedia.org/property/caption
p23
V39084
p24
sVhttp://dbpedia.org/property/leader
p25
V10540
p26
sVhttp://dbpedia.org/property/team
p27
V88925
p28
sVhttp://dbpedia.org/property/electionName
p29
V8731
p30
sVhttp://dbpedia.org/property/change
p31
V9146
p32
sVhttp://dbpedia.org/property/alt
p33
V22039
p34
sVhttp://dbpedia.org/property/referee
p35
V69161
p36
sVhttp://dbpedia.org/property/combatant
p37
V26768
p38
sVhttp://dbpedia.org/property/rd2Team
p39
V14791
p40
sVhttp://dbpedia.org/property/image
p41
V32635
p42
sVhttp://dbpedia.org/property/conflict
p43
V13184
p44
sVhttp://dbpedia.org/property/country
p45
V14634
p46
sVhttp://dbpedia.org/property/rd1Score
p47
V12474
p48
sVhttp://dbpedia.org/property/rd
p49
V9461
p50
sVhttp://dbpedia.org/property/electionDate
p51
V8763
p52
sVhttp://dbpedia.org/property/partof
p53
V12098
p54
sVhttp://dbpedia.org/property/commander
p55
V49065
p56
sVhttp://dbpedia.org/property/report
p57
V87893
p58
sVhttp://dbpedia.org/property/type
p59
V11178
p60
sVhttp://dbpedia.org/property/penalties
p61
V32209
p62
sVhttp://dbpedia.org/property/location
p63
V25097
p64
sVhttp://dbpedia.org/property/count
p65
V63271
p66
sVhttp://dbpedia.org/property/goals
p67
V250911
p68
sVhttp://dbpedia.org/property/match
p69
V10106
p70
sVhttp://dbpedia.org/property/lastElection
p71
V9182
p72
sVhttp://dbpedia.org/property/title
p73
V24505
p74
sVhttp://dbpedia.org/property/party
p75
V29675
p76
sVhttp://dbpedia.org/property/percentage
p77
V80193
p78
sVhttp://dbpedia.org/property/result
p79
V14312
p80
sVhttp://dbpedia.org/property/casualties
p81
V31022
p82
sVhttp://dbpedia.org/property/name
p83
V17119
p84
sVhttp://dbpedia.org/property/previousElection
p85
V8465
p86
sVhttp://dbpedia.org/property/attendance
p87
V62103
p88
sVhttp://dbpedia.org/property/t
p89
V8911
p90
sVhttp://dbpedia.org/property/date
p91
V101828
p92
sVhttp://dbpedia.org/property/rd2Score
p93
V10287
p94
sVhttp://dbpedia.org/property/seats
p95
V12402
p96
sVhttp://dbpedia.org/property/stadium
p97
V113430
p98
sVhttp://dbpedia.org/property/year
p99
V31083
p100
s.