(dp0
Vhttp://dbpedia.org/ontology/wikiPageExternalLink
p1
V45445
p2
sVhttp://dbpedia.org/property/dateOfBirth
p3
V31911
p4
sVhttp://dbpedia.org/property/termEnd
p5
V38449
p6
sVhttp://dbpedia.org/ontology/birthPlace
p7
V43324
p8
sVhttp://dbpedia.org/ontology/wikiPageID
p9
V37884
p10
sVhttp://dbpedia.org/property/name
p11
V65417
p12
sVhttp://dbpedia.org/ontology/wikiPageWikiLink
p13
V48360
p14
sVhttp://dbpedia.org/ontology/activeYearsStartDate
p15
V29096
p16
sVhttp://dbpedia.org/property/birthPlace
p17
V37194
p18
sVhttp://dbpedia.org/property/shortDescription
p19
V35775
p20
sVhttp://dbpedia.org/property/placeOfBirth
p21
V33263
p22
sVhttp://dbpedia.org/property/office
p23
V29983
p24
sVhttp://dbpedia.org/property/termStart
p25
V45068
p26
sVhttp://dbpedia.org/property/predecessor
p27
V31888
p28
sVhttp://dbpedia.org/ontology/birthYear
p29
V31885
p30
sVhttp://dbpedia.org/ontology/wikiPageRevisionID
p31
V37884
p32
sVhttp://dbpedia.org/property/years
p33
V31915
p34
sVhttp://dbpedia.org/ontology/abstract
p35
V79401
p36
sVhttp://dbpedia.org/ontology/birthDate
p37
V33866
p38
sVhttp://dbpedia.org/property/successor
p39
V29224
p40
s.