(dp0
Vhttp://dbpedia.org/property/website
p1
V7010
p2
sVhttp://dbpedia.org/property/series
p3
V5591
p4
sVhttp://dbpedia.org/property/gspot
p5
V3384
p6
sVhttp://dbpedia.org/property/producer
p7
V3227
p8
sVhttp://dbpedia.org/property/award
p9
V1200
p10
sVhttp://dbpedia.org/property/programmingLanguage
p11
V5923
p12
sVhttp://dbpedia.org/property/paradigm
p13
V1067
p14
sVhttp://dbpedia.org/property/cabinet
p15
V1146
p16
sVhttp://dbpedia.org/property/latestReleaseDate
p17
V3580
p18
sVhttp://dbpedia.org/property/genre
p19
V36289
p20
sVhttp://dbpedia.org/property/caption
p21
V13474
p22
sVhttp://dbpedia.org/property/writer
p23
V2431
p24
sVhttp://dbpedia.org/property/author
p25
V2065
p26
sVhttp://dbpedia.org/property/engine
p27
V3640
p28
sVhttp://dbpedia.org/property/released
p29
V30573
p30
sVhttp://dbpedia.org/property/designer
p31
V8517
p32
sVhttp://dbpedia.org/property/composer
p33
V8698
p34
sVhttp://dbpedia.org/property/ign
p35
V4022
p36
sVhttp://dbpedia.org/property/gr
p37
V5974
p38
sVhttp://dbpedia.org/property/wordnet_type
p39
V4068
p40
sVhttp://dbpedia.org/property/display
p41
V1377
p42
sVhttp://dbpedia.org/property/rev
p43
V4420
p44
sVhttp://dbpedia.org/property/screenshot
p45
V3762
p46
sVhttp://dbpedia.org/property/language
p47
V3847
p48
sVhttp://dbpedia.org/property/artist
p49
V3274
p50
sVhttp://dbpedia.org/property/platforms
p51
V46054
p52
sVhttp://dbpedia.org/property/distributor
p53
V2141
p54
sVhttp://dbpedia.org/property/modes
p55
V25371
p56
sVhttp://dbpedia.org/property/platform
p57
V3509
p58
sVhttp://dbpedia.org/property/gi
p59
V1805
p60
sVhttp://dbpedia.org/property/programmer
p61
V1995
p62
sVhttp://dbpedia.org/property/developer
p63
V33669
p64
sVhttp://dbpedia.org/property/logo
p65
V4711
p66
sVhttp://dbpedia.org/property/id
p67
V4091
p68
sVhttp://dbpedia.org/property/publisher
p69
V20667
p70
sVhttp://dbpedia.org/property/extra
p71
V1351
p72
sVhttp://dbpedia.org/property/mc
p73
V5277
p74
sVhttp://dbpedia.org/property/title
p75
V31339
p76
sVhttp://dbpedia.org/property/latestReleaseVersion
p77
V8518
p78
sVhttp://dbpedia.org/property/length
p79
V8859
p80
sVhttp://dbpedia.org/property/rev1score
p81
V1410
p82
sVhttp://dbpedia.org/property/operatingSystem
p83
V14904
p84
sVhttp://dbpedia.org/property/name
p85
V14860
p86
sVhttp://dbpedia.org/property/eurog
p87
V1555
p88
sVhttp://dbpedia.org/property/supportedPlatforms
p89
V1113
p90
sVhttp://dbpedia.org/property/director
p91
V2915
p92
sVhttp://dbpedia.org/property/gamezone
p93
V1176
p94
sVhttp://dbpedia.org/property/status
p95
V2941
p96
sVhttp://dbpedia.org/property/license
p97
V10505
p98
sVhttp://dbpedia.org/property/frequentlyUpdated
p99
V1216
p100
s.