(dp0
Vhttp://dbpedia.org/property/website
p1
V93957
p2
sVhttp://dbpedia.org/property/origin
p3
V52483
p4
sVhttp://dbpedia.org/property/motto
p5
V27078
p6
sVhttp://dbpedia.org/property/body
p7
V35134
p8
sVhttp://dbpedia.org/property/ground
p9
V39518
p10
sVhttp://dbpedia.org/property/established
p11
V38589
p12
sVhttp://dbpedia.org/property/leftarm
p13
V34644
p14
sVhttp://dbpedia.org/property/currentMembers
p15
V86838
p16
sVhttp://dbpedia.org/property/city
p17
V81980
p18
sVhttp://dbpedia.org/property/homepage
p19
V51389
p20
sVhttp://dbpedia.org/property/no
p21
V128099
p22
sVhttp://dbpedia.org/property/genre
p23
V83185
p24
sVhttp://dbpedia.org/property/caption
p25
V38749
p26
sVhttp://dbpedia.org/property/nickname
p27
V24284
p28
sVhttp://dbpedia.org/property/dates
p29
V22442
p30
sVhttp://dbpedia.org/property/background
p31
V33012
p32
sVhttp://dbpedia.org/property/label
p33
V48805
p34
sVhttp://dbpedia.org/property/patternB
p35
V23444
p36
sVhttp://dbpedia.org/property/season
p37
V28053
p38
sVhttp://dbpedia.org/property/socks
p39
V33452
p40
sVhttp://dbpedia.org/property/wordnet_type
p41
V57189
p42
sVhttp://dbpedia.org/property/colors
p43
V23931
p44
sVhttp://dbpedia.org/property/products
p45
V48270
p46
sVhttp://dbpedia.org/property/keyPeople
p47
V66584
p48
sVhttp://dbpedia.org/property/owner
p49
V40018
p50
sVhttp://dbpedia.org/property/country
p51
V73774
p52
sVhttp://dbpedia.org/property/associatedActs
p53
V37943
p54
sVhttp://dbpedia.org/property/pos
p55
V37638
p56
sVhttp://dbpedia.org/property/nat
p57
V29535
p58
sVhttp://dbpedia.org/property/industry
p59
V55698
p60
sVhttp://dbpedia.org/property/pastMembers
p61
V77301
p62
sVhttp://dbpedia.org/property/shorts
p63
V32658
p64
sVhttp://dbpedia.org/property/state
p65
V28645
p66
sVhttp://dbpedia.org/property/type
p67
V116919
p68
sVhttp://dbpedia.org/property/location
p69
V91443
p70
sVhttp://dbpedia.org/property/logo
p71
V55782
p72
sVhttp://dbpedia.org/property/format
p73
V22946
p74
sVhttp://dbpedia.org/property/foundation
p75
V49790
p76
sVhttp://dbpedia.org/property/fullname
p77
V22715
p78
sVhttp://dbpedia.org/property/sisterStations
p79
V25936
p80
sVhttp://dbpedia.org/property/yearsActive
p81
V32135
p82
sVhttp://dbpedia.org/property/headquarters
p83
V38401
p84
sVhttp://dbpedia.org/property/league
p85
V25596
p86
sVhttp://dbpedia.org/property/name
p87
V429336
p88
sVhttp://dbpedia.org/property/founder
p89
V29336
p90
sVhttp://dbpedia.org/property/locationCity
p91
V26566
p92
sVhttp://dbpedia.org/property/battles
p93
V33314
p94
sVhttp://dbpedia.org/property/affiliations
p95
V28040
p96
sVhttp://dbpedia.org/property/founded
p97
V43631
p98
sVhttp://dbpedia.org/property/rightarm
p99
V34658
p100
s.