(dp0
Vhttp://dbpedia.org/property/\u05de\u05e2\u05e8\u05db\u05d4
p1
V3758
p2
sVhttp://dbpedia.org/property/tribus
p3
V23282
p4
sVhttp://dbpedia.org/property/rangeMapCaption
p5
V5688
p6
sVhttp://dbpedia.org/property/synonyms
p7
V110422
p8
sVhttp://dbpedia.org/property/imageCaption
p9
V52952
p10
sVhttp://dbpedia.org/property/subgenus
p11
V5035
p12
sVhttp://dbpedia.org/property/unrankedSuperfamilia
p13
V75142
p14
sVhttp://dbpedia.org/property/ordo
p15
V253154
p16
sVhttp://dbpedia.org/property/phylum
p17
V219546
p18
sVhttp://dbpedia.org/property/subphylum
p19
V10586
p20
sVhttp://dbpedia.org/property/infraordo
p21
V5329
p22
sVhttp://dbpedia.org/property/subdivision
p23
V49274
p24
sVhttp://dbpedia.org/property/subordo
p25
V31700
p26
sVhttp://dbpedia.org/property/image
p27
V6511
p28
sVhttp://dbpedia.org/property/sire
p29
V3693
p30
sVhttp://dbpedia.org/property/typeSpeciesAuthority
p31
V10116
p32
sVhttp://dbpedia.org/property/divisio
p33
V11446
p34
sVhttp://dbpedia.org/property/binomialAuthority
p35
V137959
p36
sVhttp://dbpedia.org/property/owner
p37
V4578
p38
sVhttp://dbpedia.org/property/country
p39
V3731
p40
sVhttp://dbpedia.org/property/subfamilia
p41
V49028
p42
sVhttp://dbpedia.org/property/unrankedOrdo
p43
V40318
p44
sVhttp://dbpedia.org/property/genus
p45
V271909
p46
sVhttp://dbpedia.org/property/foaled
p47
V3693
p48
sVhttp://dbpedia.org/property/binomial
p49
V211705
p50
sVhttp://dbpedia.org/property/\u05e9\u05dd\u05de\u05d3\u05e2\u05d9
p51
V3743
p52
sVhttp://dbpedia.org/property/\u05de\u05de\u05dc\u05db\u05d4
p53
V3791
p54
sVhttp://dbpedia.org/property/race
p55
V17507
p56
sVhttp://dbpedia.org/property/id
p57
V4693
p58
sVhttp://dbpedia.org/property/classis
p59
V230173
p60
sVhttp://dbpedia.org/property/familiaAuthority
p61
V4861
p62
sVhttp://dbpedia.org/property/fossilRange
p63
V6056
p64
sVhttp://dbpedia.org/property/rangeMap
p65
V7275
p66
sVhttp://dbpedia.org/property/taxon
p67
V3879
p68
sVhttp://dbpedia.org/property/status
p69
V48401
p70
sVhttp://dbpedia.org/property/regnum
p71
V279750
p72
sVhttp://dbpedia.org/property/statusSystem
p73
V47411
p74
sVhttp://dbpedia.org/property/imageWidth
p75
V35613
p76
sVhttp://dbpedia.org/property/subdivisionRanks
p77
V35426
p78
sVhttp://dbpedia.org/property/name
p79
V162032
p80
sVhttp://dbpedia.org/property/superfamilia
p81
V35840
p82
sVhttp://dbpedia.org/property/unrankedDivisio
p83
V48963
p84
sVhttp://dbpedia.org/property/species
p85
V219419
p86
sVhttp://dbpedia.org/property/familia
p87
V275871
p88
sVhttp://dbpedia.org/property/unrankedClassis
p89
V49046
p90
sVhttp://dbpedia.org/property/trainer
p91
V4243
p92
sVhttp://dbpedia.org/property/typeSpecies
p93
V12119
p94
sVhttp://dbpedia.org/property/year
p95
V5029
p96
sVhttp://dbpedia.org/property/subclassis
p97
V9603
p98
sVhttp://dbpedia.org/property/genusAuthority
p99
V52292
p100
s.