(dp0
Vhttp://dbpedia.org/resource/Spanish_algyroides
p1
V31
p2
sVhttp://dbpedia.org/resource/Gravelines_(horse)
p3
V56
p4
sVhttp://dbpedia.org/resource/Daiwa_Scarlet
p5
V62
p6
sVhttp://dbpedia.org/resource/Tiresias_(horse)
p7
V58
p8
sVhttp://dbpedia.org/resource/Belle_of_All
p9
V60
p10
sVhttp://dbpedia.org/resource/Pop_Rock_(horse)
p11
V61
p12
sVhttp://dbpedia.org/resource/Patella_(gastropod)
p13
V34
p14
sVhttp://dbpedia.org/resource/Meadow_Skipper
p15
V50
p16
sVhttp://dbpedia.org/resource/Bodemeister
p17
V61
p18
sVhttp://dbpedia.org/resource/Meso-American_slider
p19
V31
p20
sVhttp://dbpedia.org/resource/Blue_wildebeest
p21
V58
p22
sVhttp://dbpedia.org/resource/Burgoo_King
p23
V61
p24
sVhttp://dbpedia.org/resource/The_French_Furze
p25
V31
p26
sVhttp://dbpedia.org/resource/Synodontis_longispinis
p27
V32
p28
sVhttp://dbpedia.org/resource/Waterbuck
p29
V51
p30
sVhttp://dbpedia.org/resource/Bona_Vista
p31
V63
p32
sVhttp://dbpedia.org/resource/Stromatium_unicolor
p33
V31
p34
sVhttp://dbpedia.org/resource/Caloscypha
p35
V36
p36
sVhttp://dbpedia.org/resource/Musjid_(horse)
p37
V59
p38
sVhttp://dbpedia.org/resource/Jasus_caveorum
p39
V36
p40
sVhttp://dbpedia.org/resource/Dangerous_Midge
p41
V58
p42
sVhttp://dbpedia.org/resource/Pistacia_atlantica
p43
V37
p44
sVhttp://dbpedia.org/resource/Sphagnurus_paluster
p45
V33
p46
sVhttp://dbpedia.org/resource/Hyles_livornica
p47
V38
p48
sVhttp://dbpedia.org/resource/Canadian_Bound
p49
V57
p50
sVhttp://dbpedia.org/resource/Glencoe_I
p51
V66
p52
sVhttp://dbpedia.org/resource/Common_tsessebe
p53
V50
p54
sVhttp://dbpedia.org/resource/Kryptopterus_vitreolus
p55
V33
p56
sVhttp://dbpedia.org/resource/Parth_(horse)
p57
V55
p58
sVhttp://dbpedia.org/resource/Synodontis_lufirae
p59
V32
p60
sVhttp://dbpedia.org/resource/Princely_Gift
p61
V59
p62
sVhttp://dbpedia.org/resource/Lakeway_(horse)
p63
V57
p64
sVhttp://dbpedia.org/resource/Eri-Aaroni
p65
V58
p66
sVhttp://dbpedia.org/resource/Tom_Fool
p67
V66
p68
sVhttp://dbpedia.org/resource/Dalbergia_sissoo
p69
V34
p70
sVhttp://dbpedia.org/resource/Pachydactylus_robertsi
p71
V33
p72
sVhttp://dbpedia.org/resource/Protectionist_(horse)
p73
V56
p74
sVhttp://dbpedia.org/resource/Circular_Quay_(horse)
p75
V59
p76
sVhttp://dbpedia.org/resource/Le_Havre_(horse)
p77
V56
p78
sVhttp://dbpedia.org/resource/Blacklock_(horse)
p79
V60
p80
sVhttp://dbpedia.org/resource/Gold_Splash
p81
V59
p82
sVhttp://dbpedia.org/resource/Toronado_(racehorse)
p83
V61
p84
sVhttp://dbpedia.org/resource/Fraser's_dolphin
p85
V51
p86
sVhttp://dbpedia.org/resource/Ragstone_(horse)
p87
V58
p88
sVhttp://dbpedia.org/resource/Black_Knight_(horse)
p89
V56
p90
sVhttp://dbpedia.org/resource/Camacinia_othello
p91
V31
p92
sVhttp://dbpedia.org/resource/Tecoma_capensis
p93
V35
p94
sVhttp://dbpedia.org/resource/Privy_Councillor_(horse)
p95
V57
p96
sVhttp://dbpedia.org/resource/Proclamation_(horse)
p97
V57
p98
sVhttp://dbpedia.org/resource/Pomegranate
p99
V68
p100
sVhttp://dbpedia.org/resource/South_African_giraffe
p101
V36
p102
sVhttp://dbpedia.org/resource/Homing_(horse)
p103
V60
p104
sVhttp://dbpedia.org/resource/Wild_Dayrell
p105
V56
p106
sVhttp://dbpedia.org/resource/Djebel
p107
V64
p108
sVhttp://dbpedia.org/resource/Zarkava
p109
V64
p110
sVhttp://dbpedia.org/resource/Great_Maui_crake
p111
V33
p112
sVhttp://dbpedia.org/resource/Alkaased
p113
V59
p114
sVhttp://dbpedia.org/resource/Dunfermline_(horse)
p115
V61
p116
sVhttp://dbpedia.org/resource/Stopchargingmaria
p117
V56
p118
sVhttp://dbpedia.org/resource/Mycena_alcalina
p119
V31
p120
sVhttp://dbpedia.org/resource/Falanouc
p121
V45
p122
sVhttp://dbpedia.org/resource/Moorestyle
p123
V59
p124
sVhttp://dbpedia.org/resource/Alycidon
p125
V65
p126
sVhttp://dbpedia.org/resource/Iridescent_toothcarp
p127
V32
p128
sVhttp://dbpedia.org/resource/Mashaallah_(horse)
p129
V59
p130
sVhttp://dbpedia.org/resource/Two-spot_red_snapper
p131
V29
p132
sVhttp://dbpedia.org/resource/Sarcoscypha_dudleyi
p133
V34
p134
sVhttp://dbpedia.org/resource/Game_On_Dude
p135
V64
p136
sVhttp://dbpedia.org/resource/Atretochoana
p137
V35
p138
sVhttp://dbpedia.org/resource/Whitespotted_pygmy_filefish
p139
V29
p140
sVhttp://dbpedia.org/resource/Pope_Joan_(horse)
p141
V59
p142
sVhttp://dbpedia.org/resource/Eryx_jaculus
p143
V34
p144
sVhttp://dbpedia.org/resource/Calumma_andringitraense
p145
V32
p146
sVhttp://dbpedia.org/resource/Darara
p147
V62
p148
sVhttp://dbpedia.org/resource/Quinoa
p149
V80
p150
sVhttp://dbpedia.org/resource/Carnegie_(horse)
p151
V64
p152
sVhttp://dbpedia.org/resource/Cairo_spiny_mouse
p153
V43
p154
sVhttp://dbpedia.org/resource/Gliophorus_irrigatus
p155
V26
p156
sVhttp://dbpedia.org/resource/Singspiel_(horse)
p157
V69
p158
sVhttp://dbpedia.org/resource/Lexington_(horse)
p159
V66
p160
sVhttp://dbpedia.org/resource/Black-casqued_hornbill
p161
V39
p162
sVhttp://dbpedia.org/resource/Miswaki
p163
V61
p164
sVhttp://dbpedia.org/resource/Comtesse_de_Loir
p165
V56
p166
sVhttp://dbpedia.org/resource/Mute_swan
p167
V44
p168
sVhttp://dbpedia.org/resource/Kazzia
p169
V64
p170
sVhttp://dbpedia.org/resource/Newminster_(horse)
p171
V61
p172
sVhttp://dbpedia.org/resource/Kingsbarns_(horse)
p173
V62
p174
sVhttp://dbpedia.org/resource/Balkhash_perch
p175
V32
p176
sVhttp://dbpedia.org/resource/Aboyeur
p177
V61
p178
sVhttp://dbpedia.org/resource/Dansili
p179
V67
p180
sVhttp://dbpedia.org/resource/Holly
p181
V40
p182
sVhttp://dbpedia.org/resource/Sir_Hugo
p183
V59
p184
sVhttp://dbpedia.org/resource/El_Gran_Senor
p185
V64
p186
sVhttp://dbpedia.org/resource/Sir_Tatton_Sykes
p187
V60
p188
sVhttp://dbpedia.org/resource/Katchit
p189
V60
p190
sVhttp://dbpedia.org/resource/Tiznow
p191
V62
p192
sVhttp://dbpedia.org/resource/Tinners_Way_(horse)
p193
V31
p194
sVhttp://dbpedia.org/resource/Amounis
p195
V59
p196
sVhttp://dbpedia.org/resource/Wild_Man_From_Borneo
p197
V54
p198
sVhttp://dbpedia.org/resource/Vigna_mungo
p199
V55
p200
sVhttp://dbpedia.org/resource/Waxy_(horse)
p201
V62
p202
sVhttp://dbpedia.org/resource/Ya_Malak
p203
V56
p204
sVhttp://dbpedia.org/resource/Typecast_(horse)
p205
V33
p206
sVhttp://dbpedia.org/resource/Summer_Bird
p207
V61
p208
sVhttp://dbpedia.org/resource/Ossory_(horse)
p209
V61
p210
sVhttp://dbpedia.org/resource/Kilijaro
p211
V58
p212
sVhttp://dbpedia.org/resource/Kalaglow
p213
V56
p214
sVhttp://dbpedia.org/resource/Fame_and_Glory
p215
V65
p216
sVhttp://dbpedia.org/resource/Carbine_(horse)
p217
V60
p218
sVhttp://dbpedia.org/resource/Tarascon_(horse)
p219
V58
p220
sVhttp://dbpedia.org/resource/What_a_Treat
p221
V60
p222
sVhttp://dbpedia.org/resource/Snow_pea
p223
V58
p224
sVhttp://dbpedia.org/resource/Benny_the_Dip
p225
V61
p226
sVhttp://dbpedia.org/resource/Machiavellian_(horse)
p227
V55
p228
sVhttp://dbpedia.org/resource/Solario
p229
V35
p230
sVhttp://dbpedia.org/resource/Sarcoscypha_coccinea
p231
V34
p232
sVhttp://dbpedia.org/resource/Red_Giant_(horse)
p233
V26
p234
sVhttp://dbpedia.org/resource/Marske_(horse)
p235
V32
p236
sVhttp://dbpedia.org/resource/Trachemys_dorbignyi_dorbignyi
p237
V26
p238
sVhttp://dbpedia.org/resource/Mycena_flavoalba
p239
V32
p240
sVhttp://dbpedia.org/resource/Amoeba_(genus)
p241
V34
p242
sVhttp://dbpedia.org/resource/Pilsudski_(horse)
p243
V64
p244
sVhttp://dbpedia.org/resource/Amur_leopard
p245
V48
p246
sVhttp://dbpedia.org/resource/Hydnum_repandum
p247
V47
p248
sVhttp://dbpedia.org/resource/Amaranth
p249
V79
p250
sVhttp://dbpedia.org/resource/Fields_of_Omagh
p251
V57
p252
sVhttp://dbpedia.org/resource/Corinne_(horse)
p253
V59
p254
sVhttp://dbpedia.org/resource/Minuet_(horse)
p255
V58
p256
sVhttp://dbpedia.org/resource/Rockfel
p257
V60
p258
sVhttp://dbpedia.org/resource/Lichtenstein's_sandgrouse
p259
V37
p260
sVhttp://dbpedia.org/resource/Panulirus_homarus
p261
V33
p262
sVhttp://dbpedia.org/resource/Juglans_major
p263
V34
p264
sVhttp://dbpedia.org/resource/Noverre
p265
V61
p266
sVhttp://dbpedia.org/resource/Mycocepurus_smithii
p267
V28
p268
sVhttp://dbpedia.org/resource/Thick-billed_lark
p269
V34
p270
sVhttp://dbpedia.org/resource/Black-faced_ibis
p271
V40
p272
sVhttp://dbpedia.org/resource/Canonero_II
p273
V59
p274
sVhttp://dbpedia.org/resource/Gladiolus_italicus
p275
V36
p276
sVhttp://dbpedia.org/resource/Daniel_O'Rourke_(horse)
p277
V58
p278
sVhttp://dbpedia.org/resource/Musical_Bliss
p279
V59
p280
sVhttp://dbpedia.org/resource/Turtle_Island_(horse)
p281
V59
p282
sVhttp://dbpedia.org/resource/Kincsem
p283
V60
p284
sVhttp://dbpedia.org/resource/Acca_sellowiana
p285
V62
p286
sVhttp://dbpedia.org/resource/Pineau_de_Re
p287
V59
p288
sVhttp://dbpedia.org/resource/Millenary
p289
V59
p290
sVhttp://dbpedia.org/resource/Alabama_map_turtle
p291
V33
p292
sVhttp://dbpedia.org/resource/Palinurus_mauritanicus
p293
V31
p294
sVhttp://dbpedia.org/resource/Pharos_(horse)
p295
V31
p296
sVhttp://dbpedia.org/resource/Pholiota_flammans
p297
V32
p298
sVhttp://dbpedia.org/resource/Argentine_black_and_white_tegu
p299
V41
p300
sVhttp://dbpedia.org/resource/Baiji
p301
V55
p302
sVhttp://dbpedia.org/resource/Halkieriid
p303
V153
p304
sVhttp://dbpedia.org/resource/Virgin_Islands_dwarf_sphaero
p305
V36
p306
sVhttp://dbpedia.org/resource/Blackcurrant
p307
V55
p308
sVhttp://dbpedia.org/resource/Nearctic_(horse)
p309
V64
p310
sVhttp://dbpedia.org/resource/Leucocoprinus_fragilissimus
p311
V31
p312
sVhttp://dbpedia.org/resource/Strawberry
p313
V58
p314
sVhttp://dbpedia.org/resource/Johannesburg_(horse)
p315
V59
p316
sVhttp://dbpedia.org/resource/Northern_cardinal
p317
V50
p318
sVhttp://dbpedia.org/resource/Polistes_carolina
p319
V31
p320
sVhttp://dbpedia.org/resource/Micrelaps_muelleri
p321
V38
p322
sVhttp://dbpedia.org/resource/Peintre_Celebre
p323
V66
p324
sVhttp://dbpedia.org/resource/Noalcoholic
p325
V58
p326
sVhttp://dbpedia.org/resource/Sagittaria_latifolia
p327
V45
p328
sVhttp://dbpedia.org/resource/Embassy_(horse)
p329
V65
p330
sVhttp://dbpedia.org/resource/Okra
p331
V81
p332
sVhttp://dbpedia.org/resource/Synodontis_notatus
p333
V33
p334
sVhttp://dbpedia.org/resource/Enzeli_(horse)
p335
V58
p336
sVhttp://dbpedia.org/resource/Gazelle
p337
V35
p338
sVhttp://dbpedia.org/resource/Shanghai_Bobby
p339
V59
p340
sVhttp://dbpedia.org/resource/Cantelo
p341
V57
p342
sVhttp://dbpedia.org/resource/Panty_Raid_(horse)
p343
V57
p344
sVhttp://dbpedia.org/resource/Motivator_(horse)
p345
V64
p346
sVhttp://dbpedia.org/resource/Bawean_deer
p347
V47
p348
sVhttp://dbpedia.org/resource/Tiller_(horse)
p349
V59
p350
sVhttp://dbpedia.org/resource/Diesis_(horse)
p351
V62
p352
sVhttp://dbpedia.org/resource/Batoidea
p353
V33
p354
sVhttp://dbpedia.org/resource/Human
p355
V59
p356
sVhttp://dbpedia.org/resource/Drymoreomys
p357
V38
p358
sVhttp://dbpedia.org/resource/Slip_Anchor
p359
V62
p360
sVhttp://dbpedia.org/resource/Dryococelus_australis
p361
V35
p362
sVhttp://dbpedia.org/resource/Budgerigar
p363
V55
p364
sVhttp://dbpedia.org/resource/Blushing_Groom
p365
V62
p366
sVhttp://dbpedia.org/resource/Pennekamp
p367
V62
p368
sVhttp://dbpedia.org/resource/Arabian_Queen
p369
V58
p370
sVhttp://dbpedia.org/resource/Synodontis_ornatipinnis
p371
V32
p372
sVhttp://dbpedia.org/resource/Detroit_(horse)
p373
V58
p374
sVhttp://dbpedia.org/resource/Greater_rhea
p375
V50
p376
sVhttp://dbpedia.org/resource/North_African_white-toothed_shrew
p377
V28
p378
sVhttp://dbpedia.org/resource/Sweet_Solera
p379
V56
p380
sVhttp://dbpedia.org/resource/Aloma's_Ruler
p381
V55
p382
sVhttp://dbpedia.org/resource/Trading_Leather
p383
V63
p384
sVhttp://dbpedia.org/resource/Reticulate_whipray
p385
V34
p386
sVhttp://dbpedia.org/resource/Leading_Light
p387
V64
p388
sVhttp://dbpedia.org/resource/Presvis
p389
V58
p390
sVhttp://dbpedia.org/resource/The_Marquis
p391
V54
p392
sVhttp://dbpedia.org/resource/Court_Masterpiece
p393
V60
p394
sVhttp://dbpedia.org/resource/Zenyatta
p395
V68
p396
sVhttp://dbpedia.org/resource/Ptinus_sexpunctatus
p397
V26
p398
sVhttp://dbpedia.org/resource/Marginated_tortoise
p399
V52
p400
sVhttp://dbpedia.org/resource/Blue_Peter_(British_horse)
p401
V64
p402
sVhttp://dbpedia.org/resource/Rogilla
p403
V56
p404
sVhttp://dbpedia.org/resource/Take_Charge_Indy
p405
V60
p406
sVhttp://dbpedia.org/resource/Secreto
p407
V58
p408
sVhttp://dbpedia.org/resource/Dicentrarchus
p409
V34
p410
sVhttp://dbpedia.org/resource/Commotion_(horse)
p411
V58
p412
sVhttp://dbpedia.org/resource/Arctic_Tern_(horse)
p413
V57
p414
sVhttp://dbpedia.org/resource/Golan_(horse)
p415
V62
p416
sVhttp://dbpedia.org/resource/Amanita_regalis
p417
V37
p418
sVhttp://dbpedia.org/resource/Raja_Baba
p419
V63
p420
sVhttp://dbpedia.org/resource/Harrisia_bonplandii
p421
V29
p422
sVhttp://dbpedia.org/resource/Questionnaire_(horse)
p423
V60
p424
sVhttp://dbpedia.org/resource/The_Grey_Gatsby
p425
V61
p426
sVhttp://dbpedia.org/resource/Rubiton
p427
V59
p428
sVhttp://dbpedia.org/resource/Tim_Tam_(horse)
p429
V65
p430
sVhttp://dbpedia.org/resource/Tokino_Minoru
p431
V58
p432
sVhttp://dbpedia.org/resource/Solford
p433
V60
p434
sVhttp://dbpedia.org/resource/Mycena_sanguinolenta
p435
V37
p436
sVhttp://dbpedia.org/resource/Catchascatchcan
p437
V60
p438
sVhttp://dbpedia.org/resource/Try_My_Best
p439
V63
p440
sVhttp://dbpedia.org/resource/Doyen_(horse)
p441
V63
p442
sVhttp://dbpedia.org/resource/Kyllachy
p443
V56
p444
sVhttp://dbpedia.org/resource/Persimmon_(horse)
p445
V66
p446
sVhttp://dbpedia.org/resource/Sociable_weaver
p447
V43
p448
sVhttp://dbpedia.org/resource/Bothriopsis_oligolepis
p449
V32
p450
sVhttp://dbpedia.org/resource/Indian_hog_deer
p451
V44
p452
sVhttp://dbpedia.org/resource/Holiday_(horse)
p453
V56
p454
sVhttp://dbpedia.org/resource/Soaring_Softly
p455
V30
p456
sVhttp://dbpedia.org/resource/Komatsuna
p457
V46
p458
sVhttp://dbpedia.org/resource/Hippodamia_(horse)
p459
V59
p460
sVhttp://dbpedia.org/resource/Bold_Venture_(horse)
p461
V61
p462
sVhttp://dbpedia.org/resource/Hoopoe
p463
V52
p464
sVhttp://dbpedia.org/resource/Ghanaati
p465
V63
p466
sVhttp://dbpedia.org/resource/Vayrann
p467
V61
p468
sVhttp://dbpedia.org/resource/Almutawakel
p469
V60
p470
sVhttp://dbpedia.org/resource/Al_Kazeem
p471
V62
p472
sVhttp://dbpedia.org/resource/Dodging_Bullets
p473
V60
p474
sVhttp://dbpedia.org/resource/Millettia_laurentii
p475
V45
p476
sVhttp://dbpedia.org/resource/Wind_and_Wuthering_(horse)
p477
V59
p478
sVhttp://dbpedia.org/resource/Northerly
p479
V62
p480
sVhttp://dbpedia.org/resource/Acamas_(horse)
p481
V60
p482
sVhttp://dbpedia.org/resource/Silver_Spoon_(horse)
p483
V33
p484
sVhttp://dbpedia.org/resource/Rana_sauteri
p485
V31
p486
sVhttp://dbpedia.org/resource/Western_honey_bee
p487
V43
p488
sVhttp://dbpedia.org/resource/Croton_gratissimus
p489
V32
p490
sVhttp://dbpedia.org/resource/Jaguar
p491
V49
p492
sVhttp://dbpedia.org/resource/Brosimum_alicastrum
p493
V75
p494
sVhttp://dbpedia.org/resource/Big_Drama
p495
V33
p496
sVhttp://dbpedia.org/resource/Mycena_galopus
p497
V38
p498
sVhttp://dbpedia.org/resource/Raphia_farinifera
p499
V29
p500
sVhttp://dbpedia.org/resource/Monterosso_(horse)
p501
V60
p502
sVhttp://dbpedia.org/resource/Mount_Nelson_(horse)
p503
V60
p504
sVhttp://dbpedia.org/resource/Coffea_magnistipula
p505
V33
p506
sVhttp://dbpedia.org/resource/Canadiana_(horse)
p507
V34
p508
sVhttp://dbpedia.org/resource/Kale
p509
V79
p510
sVhttp://dbpedia.org/resource/Okapi
p511
V60
p512
sVhttp://dbpedia.org/resource/Sumatran_tiger
p513
V46
p514
sVhttp://dbpedia.org/resource/Palaeomastodon
p515
V33
p516
sVhttp://dbpedia.org/resource/Affirmed
p517
V65
p518
sVhttp://dbpedia.org/resource/In_the_Wings_(horse)
p519
V60
p520
sVhttp://dbpedia.org/resource/Amanita_exitialis
p521
V36
p522
sVhttp://dbpedia.org/resource/The_Fugue
p523
V64
p524
sVhttp://dbpedia.org/resource/Nadir_(horse)
p525
V61
p526
sVhttp://dbpedia.org/resource/Red-billed_emerald
p527
V28
p528
sVhttp://dbpedia.org/resource/Indian_Ink_(horse)
p529
V61
p530
sVhttp://dbpedia.org/resource/Triptych_(horse)
p531
V61
p532
sVhttp://dbpedia.org/resource/Yellow-edged_lyretail
p533
V40
p534
sVhttp://dbpedia.org/resource/Kentucky_Gold
p535
V57
p536
sVhttp://dbpedia.org/resource/Balanchine_(horse)
p537
V63
p538
sVhttp://dbpedia.org/resource/Gildoran
p539
V60
p540
sVhttp://dbpedia.org/resource/Be'er_Sheva_fringe-fingered_lizard
p541
V37
p542
sVhttp://dbpedia.org/resource/Luth_Enchantee
p543
V62
p544
sVhttp://dbpedia.org/resource/Camarero
p545
V57
p546
sVhttp://dbpedia.org/resource/Zinc_(horse)
p547
V58
p548
sVhttp://dbpedia.org/resource/Peninsular_horseshoe_bat
p549
V31
p550
sVhttp://dbpedia.org/resource/Milkmaid_(horse)
p551
V29
p552
sVhttp://dbpedia.org/resource/Oxbow_(horse)
p553
V68
p554
sVhttp://dbpedia.org/resource/Synodontis_serratus
p555
V32
p556
sVhttp://dbpedia.org/resource/Saoirse_Abu
p557
V59
p558
sVhttp://dbpedia.org/resource/Sophisticat
p559
V60
p560
sVhttp://dbpedia.org/resource/Regal_Gleam
p561
V59
p562
sVhttp://dbpedia.org/resource/Oratorio_(horse)
p563
V62
p564
sVhttp://dbpedia.org/resource/Teofilo_(horse)
p565
V61
p566
sVhttp://dbpedia.org/resource/Voalavo_gymnocaudus
p567
V40
p568
sVhttp://dbpedia.org/resource/Collybia_cookei
p569
V37
p570
sVhttp://dbpedia.org/resource/Hindoo_(horse)
p571
V67
p572
sVhttp://dbpedia.org/resource/Iroquois_(horse)
p573
V34
p574
sVhttp://dbpedia.org/resource/Valeriana_celtica
p575
V32
p576
sVhttp://dbpedia.org/resource/Mycocepurus
p577
V26
p578
sVhttp://dbpedia.org/resource/Dark_Ronald
p579
V57
p580
sVhttp://dbpedia.org/resource/Boldboy
p581
V58
p582
sVhttp://dbpedia.org/resource/Alborada_(horse)
p583
V60
p584
sVhttp://dbpedia.org/resource/Nuclear_Debate
p585
V59
p586
sVhttp://dbpedia.org/resource/Ruff
p587
V50
p588
sVhttp://dbpedia.org/resource/Pleurotus_citrinopileatus
p589
V33
p590
sVhttp://dbpedia.org/resource/Hawksbill_sea_turtle
p591
V45
p592
sVhttp://dbpedia.org/resource/Royal_Rebel
p593
V59
p594
sVhttp://dbpedia.org/resource/Nashwan
p595
V65
p596
sVhttp://dbpedia.org/resource/Solow_(horse)
p597
V60
p598
sVhttp://dbpedia.org/resource/Wild_goat
p599
V45
p600
sVhttp://dbpedia.org/resource/Rufous-vented_tit
p601
V31
p602
sVhttp://dbpedia.org/resource/Roland_Gardens
p603
V56
p604
sVhttp://dbpedia.org/resource/Cotton-top_tamarin
p605
V47
p606
sVhttp://dbpedia.org/resource/Siberian_Express_(horse)
p607
V58
p608
sVhttp://dbpedia.org/resource/Sugar_glider
p609
V59
p610
sVhttp://dbpedia.org/resource/Red_Bullet
p611
V61
p612
sVhttp://dbpedia.org/resource/Wait_A_While
p613
V59
p614
sVhttp://dbpedia.org/resource/Desert_King
p615
V61
p616
sVhttp://dbpedia.org/resource/Takeover_Target
p617
V66
p618
sVhttp://dbpedia.org/resource/Megamouth_shark
p619
V49
p620
sVhttp://dbpedia.org/resource/Friar's_Balsam_(horse)
p621
V59
p622
sVhttp://dbpedia.org/resource/Crystal_Palace_(horse)
p623
V60
p624
sVhttp://dbpedia.org/resource/Colossal_squid
p625
V44
p626
sVhttp://dbpedia.org/resource/Fork-tailed_woodnymph
p627
V26
p628
sVhttp://dbpedia.org/resource/Empery
p629
V58
p630
sVhttp://dbpedia.org/resource/Gracile_capuchin_monkey
p631
V44
p632
sVhttp://dbpedia.org/resource/Royal_Charger
p633
V60
p634
sVhttp://dbpedia.org/resource/Farhh
p635
V62
p636
sVhttp://dbpedia.org/resource/Kumquat
p637
V80
p638
sVhttp://dbpedia.org/resource/Hansen_(horse)
p639
V62
p640
sVhttp://dbpedia.org/resource/Royal_Glint
p641
V63
p642
sVhttp://dbpedia.org/resource/Lamb_Chop_(horse)
p643
V32
p644
sVhttp://dbpedia.org/resource/Dark_Mirage
p645
V63
p646
sVhttp://dbpedia.org/resource/Eurasian_wren
p647
V53
p648
sVhttp://dbpedia.org/resource/Papineau_(horse)
p649
V59
p650
sVhttp://dbpedia.org/resource/Camarine
p651
V61
p652
sVhttp://dbpedia.org/resource/Alydar
p653
V66
p654
sVhttp://dbpedia.org/resource/Chelodina_canni
p655
V35
p656
sVhttp://dbpedia.org/resource/African_grey_parrot
p657
V47
p658
sVhttp://dbpedia.org/resource/Pangium_edule
p659
V43
p660
sVhttp://dbpedia.org/resource/Ridgewood_Pearl
p661
V32
p662
sVhttp://dbpedia.org/resource/Pulveroboletus_ravenelii
p663
V32
p664
sVhttp://dbpedia.org/resource/Sariska_(horse)
p665
V63
p666
sVhttp://dbpedia.org/resource/Eloeophila
p667
V29
p668
sVhttp://dbpedia.org/resource/Short-tailed_hawk
p669
V32
p670
sVhttp://dbpedia.org/resource/Skyscraper_(horse)
p671
V61
p672
sVhttp://dbpedia.org/resource/The_New_One_(horse)
p673
V61
p674
sVhttp://dbpedia.org/resource/Mahmoud_(horse)
p675
V65
p676
sVhttp://dbpedia.org/resource/Peregrine_falcon
p677
V50
p678
sVhttp://dbpedia.org/resource/Ulmus_minor_'Plotii'
p679
V55
p680
sVhttp://dbpedia.org/resource/Cortinarius_hemitrichus
p681
V33
p682
sVhttp://dbpedia.org/resource/My_Tent_Or_Yours
p683
V63
p684
sVhttp://dbpedia.org/resource/Boucher_(horse)
p685
V62
p686
sVhttp://dbpedia.org/resource/Commendable
p687
V59
p688
sVhttp://dbpedia.org/resource/Cockney_Rebel_(horse)
p689
V57
p690
sVhttp://dbpedia.org/resource/Black_scraper
p691
V31
p692
sVhttp://dbpedia.org/resource/Raccoon_dog
p693
V56
p694
sVhttp://dbpedia.org/resource/Zagreb_(horse)
p695
V58
p696
sVhttp://dbpedia.org/resource/Admetus_(horse)
p697
V60
p698
sVhttp://dbpedia.org/resource/Super_Impose
p699
V61
p700
sVhttp://dbpedia.org/resource/Almond
p701
V104
p702
sVhttp://dbpedia.org/resource/La_Prevoyante
p703
V63
p704
sVhttp://dbpedia.org/resource/Bateau_(horse)
p705
V30
p706
sVhttp://dbpedia.org/resource/Admire_Moon
p707
V63
p708
sVhttp://dbpedia.org/resource/Surfside_(horse)
p709
V62
p710
sVhttp://dbpedia.org/resource/Ochlandra_stridula
p711
V28
p712
sVhttp://dbpedia.org/resource/Potamon_fluviatile
p713
V33
p714
sVhttp://dbpedia.org/resource/Erioptera
p715
V30
p716
sVhttp://dbpedia.org/resource/Coastal_Bluff
p717
V56
p718
sVhttp://dbpedia.org/resource/Kob
p719
V48
p720
sVhttp://dbpedia.org/resource/Twilight_Alley
p721
V60
p722
sVhttp://dbpedia.org/resource/Cyclamen_coum
p723
V36
p724
sVhttp://dbpedia.org/resource/Sole_Power
p725
V64
p726
sVhttp://dbpedia.org/resource/Free_Eagle
p727
V58
p728
sVhttp://dbpedia.org/resource/Southern_bottlenose_whale
p729
V35
p730
sVhttp://dbpedia.org/resource/Sir_Gaylord
p731
V59
p732
sVhttp://dbpedia.org/resource/Balanites_aegyptiaca
p733
V35
p734
sVhttp://dbpedia.org/resource/St_Patrick_(horse)
p735
V60
p736
sVhttp://dbpedia.org/resource/Risen_Star
p737
V63
p738
sVhttp://dbpedia.org/resource/Cuscuta_campestris
p739
V37
p740
sVhttp://dbpedia.org/resource/Deputy_Minister_(horse)
p741
V62
p742
sVhttp://dbpedia.org/resource/Carrozza
p743
V58
p744
sVhttp://dbpedia.org/resource/Gay_Mecene
p745
V59
p746
sVhttp://dbpedia.org/resource/Fungus
p747
V35
p748
sVhttp://dbpedia.org/resource/Synchronised_(horse)
p749
V59
p750
sVhttp://dbpedia.org/resource/Lactarius_indigo
p751
V40
p752
sVhttp://dbpedia.org/resource/Cerbalus_aravaensis
p753
V33
p754
sVhttp://dbpedia.org/resource/Lawman_(horse)
p755
V58
p756
sVhttp://dbpedia.org/resource/Equipoise_(horse)
p757
V63
p758
sVhttp://dbpedia.org/resource/Hurricane_Fly
p759
V61
p760
sVhttp://dbpedia.org/resource/Celestus_warreni
p761
V26
p762
sVhttp://dbpedia.org/resource/Kalanisi
p763
V31
p764
sVhttp://dbpedia.org/resource/Delta_Blues_(horse)
p765
V64
p766
sVhttp://dbpedia.org/resource/Blue_whale
p767
V61
p768
sVhttp://dbpedia.org/resource/Sigy_(horse)
p769
V59
p770
sVhttp://dbpedia.org/resource/Las_Meninas_(horse)
p771
V60
p772
sVhttp://dbpedia.org/resource/Maryfield_(horse)
p773
V31
p774
sVhttp://dbpedia.org/resource/Opuntia_ficus-indica
p775
V55
p776
sVhttp://dbpedia.org/resource/Lagunette
p777
V58
p778
sVhttp://dbpedia.org/resource/Stravinsky_(horse)
p779
V67
p780
sVhttp://dbpedia.org/resource/Lechwe
p781
V58
p782
sVhttp://dbpedia.org/resource/Honeymoon_(horse)
p783
V62
p784
sVhttp://dbpedia.org/resource/Arabian_babbler
p785
V37
p786
sVhttp://dbpedia.org/resource/Merry_Hampton
p787
V58
p788
sVhttp://dbpedia.org/resource/Hemiscyllium_galei
p789
V32
p790
sVhttp://dbpedia.org/resource/Glebionis_coronaria
p791
V61
p792
sVhttp://dbpedia.org/resource/Indus_river_dolphin
p793
V40
p794
sVhttp://dbpedia.org/resource/Avocado
p795
V97
p796
sVhttp://dbpedia.org/resource/Coffea_charrieriana
p797
V33
p798
sVhttp://dbpedia.org/resource/Morpho_didius
p799
V31
p800
sVhttp://dbpedia.org/resource/Hours_After_(horse)
p801
V58
p802
sVhttp://dbpedia.org/resource/Ahonoora
p803
V57
p804
sVhttp://dbpedia.org/resource/Nile_lechwe
p805
V47
p806
sVhttp://dbpedia.org/resource/Philodendron_crassinervium
p807
V35
p808
sVhttp://dbpedia.org/resource/Best_Mate
p809
V63
p810
sVhttp://dbpedia.org/resource/Bushy-crested_hornbill
p811
V36
p812
sVhttp://dbpedia.org/resource/Mycena_polygramma
p813
V32
p814
sVhttp://dbpedia.org/resource/Cremorne_(horse)
p815
V56
p816
sVhttp://dbpedia.org/resource/Juania
p817
V33
p818
sVhttp://dbpedia.org/resource/Combat_(horse)
p819
V59
p820
sVhttp://dbpedia.org/resource/Storm_Cat
p821
V64
p822
sVhttp://dbpedia.org/resource/Pont_l'Eveque_(horse)
p823
V60
p824
sVhttp://dbpedia.org/resource/Cola_(plant)
p825
V35
p826
sVhttp://dbpedia.org/resource/Spotted_sandgrouse
p827
V37
p828
sVhttp://dbpedia.org/resource/Fantastic_Light
p829
V65
p830
sVhttp://dbpedia.org/resource/Busybody_(horse)
p831
V62
p832
sVhttp://dbpedia.org/resource/Designs_On_Rome
p833
V60
p834
sVhttp://dbpedia.org/resource/She's_a_Tiger
p835
V60
p836
sVhttp://dbpedia.org/resource/Tehran_(horse)
p837
V60
p838
sVhttp://dbpedia.org/resource/Cucumber
p839
V91
p840
sVhttp://dbpedia.org/resource/Haafhd
p841
V64
p842
sVhttp://dbpedia.org/resource/Synodontis_frontosus
p843
V32
p844
sVhttp://dbpedia.org/resource/Kingston_Town
p845
V62
p846
sVhttp://dbpedia.org/resource/Galearis_rotundifolia
p847
V31
p848
sVhttp://dbpedia.org/resource/Guppy
p849
V51
p850
sVhttp://dbpedia.org/resource/Commander_in_Chief_(horse)
p851
V66
p852
sVhttp://dbpedia.org/resource/Ruffian_(horse)
p853
V66
p854
sVhttp://dbpedia.org/resource/Red-headed_macaw
p855
V32
p856
sVhttp://dbpedia.org/resource/Snaafi_Dancer
p857
V56
p858
sVhttp://dbpedia.org/resource/Easton_(horse)
p859
V58
p860
sVhttp://dbpedia.org/resource/Might_and_Power
p861
V64
p862
sVhttp://dbpedia.org/resource/Dayatthespa
p863
V58
p864
sVhttp://dbpedia.org/resource/Pelobates_syriacus
p865
V39
p866
sVhttp://dbpedia.org/resource/Mystiko_(horse)
p867
V56
p868
sVhttp://dbpedia.org/resource/Xaar
p869
V62
p870
sVhttp://dbpedia.org/resource/Fin_whale
p871
V59
p872
sVhttp://dbpedia.org/resource/Senegalia
p873
V38
p874
sVhttp://dbpedia.org/resource/Ceratonia_siliqua
p875
V64
p876
sVhttp://dbpedia.org/resource/Typha
p877
V66
p878
sVhttp://dbpedia.org/resource/Echinolittorina_punctata
p879
V31
p880
sVhttp://dbpedia.org/resource/Alhaarth
p881
V67
p882
sVhttp://dbpedia.org/resource/Sarus_crane
p883
V48
p884
sVhttp://dbpedia.org/resource/Red-capped_tamarin
p885
V35
p886
sVhttp://dbpedia.org/resource/Tolmi
p887
V61
p888
sVhttp://dbpedia.org/resource/Mr._C.B.
p889
V60
p890
sVhttp://dbpedia.org/resource/Steady_Growth
p891
V63
p892
sVhttp://dbpedia.org/resource/Madagascan_wagtail
p893
V39
p894
sVhttp://dbpedia.org/resource/Thunderhead_(horse)
p895
V57
p896
sVhttp://dbpedia.org/resource/Wild_rice
p897
V73
p898
sVhttp://dbpedia.org/resource/The_Green_Monkey
p899
V58
p900
sVhttp://dbpedia.org/resource/Radish
p901
V62
p902
sVhttp://dbpedia.org/resource/Dylan_Mouth
p903
V57
p904
sVhttp://dbpedia.org/resource/Shaadi_(horse)
p905
V58
p906
sVhttp://dbpedia.org/resource/Watercress
p907
V77
p908
sVhttp://dbpedia.org/resource/My_Dear_III
p909
V60
p910
sVhttp://dbpedia.org/resource/Cockatiel
p911
V54
p912
sVhttp://dbpedia.org/resource/Pachydactylus_labialis
p913
V31
p914
sVhttp://dbpedia.org/resource/Spur-thighed_tortoise
p915
V54
p916
sVhttp://dbpedia.org/resource/Helladotherium
p917
V41
p918
sVhttp://dbpedia.org/resource/Cane_toad
p919
V52
p920
sVhttp://dbpedia.org/resource/Quick_As_Lightning
p921
V60
p922
sVhttp://dbpedia.org/resource/Ellington_(horse)
p923
V56
p924
sVhttp://dbpedia.org/resource/Successor_(horse)
p925
V62
p926
sVhttp://dbpedia.org/resource/Potato
p927
V90
p928
sVhttp://dbpedia.org/resource/Gallo_Blue_Chip
p929
V58
p930
sVhttp://dbpedia.org/resource/Bustino
p931
V60
p932
sVhttp://dbpedia.org/resource/Middle_East_tree_frog
p933
V38
p934
sVhttp://dbpedia.org/resource/Gazella_erlangeri
p935
V43
p936
sVhttp://dbpedia.org/resource/Nabalus_crepidineus
p937
V29
p938
sVhttp://dbpedia.org/resource/Phleum_alpinum
p939
V32
p940
sVhttp://dbpedia.org/resource/Hot_Snap
p941
V63
p942
sVhttp://dbpedia.org/resource/Karshi_(horse)
p943
V59
p944
sVhttp://dbpedia.org/resource/Mayson_(horse)
p945
V60
p946
sVhttp://dbpedia.org/resource/Shuttles_hoppfish
p947
V31
p948
sVhttp://dbpedia.org/resource/Invasor_(horse)
p949
V64
p950
sVhttp://dbpedia.org/resource/Olive
p951
V65
p952
sVhttp://dbpedia.org/resource/Judy_the_Beauty
p953
V61
p954
sVhttp://dbpedia.org/resource/Bernardini
p955
V64
p956
sVhttp://dbpedia.org/resource/Synodontis_macrostoma
p957
V32
p958
sVhttp://dbpedia.org/resource/Beau_Purple
p959
V58
p960
sVhttp://dbpedia.org/resource/Bahram_(horse)
p961
V62
p962
sVhttp://dbpedia.org/resource/Celery
p963
V81
p964
sVhttp://dbpedia.org/resource/Saintly
p965
V62
p966
sVhttp://dbpedia.org/resource/War_Command
p967
V64
p968
sVhttp://dbpedia.org/resource/Woodlark
p969
V47
p970
sVhttp://dbpedia.org/resource/Minting_(horse)
p971
V60
p972
sVhttp://dbpedia.org/resource/Bornean_slow_loris
p973
V38
p974
sVhttp://dbpedia.org/resource/Parsley
p975
V64
p976
sVhttp://dbpedia.org/resource/Quince
p977
V65
p978
sVhttp://dbpedia.org/resource/Arapaima_gigas
p979
V26
p980
sVhttp://dbpedia.org/resource/Harvester_(horse)
p981
V59
p982
sVhttp://dbpedia.org/resource/Synodontis_filamentosus
p983
V32
p984
sVhttp://dbpedia.org/resource/Violet_goby
p985
V26
p986
sVhttp://dbpedia.org/resource/Mill_Reef
p987
V65
p988
sVhttp://dbpedia.org/resource/Vigors_(horse)
p989
V59
p990
sVhttp://dbpedia.org/resource/Atlantic_(horse)
p991
V60
p992
sVhttp://dbpedia.org/resource/Law_Society_(horse)
p993
V60
p994
sVhttp://dbpedia.org/resource/Methona_confusa
p995
V31
p996
sVhttp://dbpedia.org/resource/Bornean_orangutan
p997
V53
p998
sVhttp://dbpedia.org/resource/Call_Equiname
p999
V55
p1000
sVhttp://dbpedia.org/resource/Petoski
p1001
V58
p1002
sVhttp://dbpedia.org/resource/Narcissus_(plant)
p1003
V48
p1004
sVhttp://dbpedia.org/resource/Ramaria_botrytis
p1005
V32
p1006
sVhttp://dbpedia.org/resource/Peckoltia_pankimpuju
p1007
V28
p1008
sVhttp://dbpedia.org/resource/Teenoso
p1009
V59
p1010
sVhttp://dbpedia.org/resource/Napa_cabbage
p1011
V41
p1012
sVhttp://dbpedia.org/resource/Sodium_(horse)
p1013
V57
p1014
sVhttp://dbpedia.org/resource/Watling_Street_(horse)
p1015
V59
p1016
sVhttp://dbpedia.org/resource/Ad_Valorem_(horse)
p1017
V64
p1018
sVhttp://dbpedia.org/resource/St._Frusquin
p1019
V59
p1020
sVhttp://dbpedia.org/resource/Nilgiri_tahr
p1021
V49
p1022
sVhttp://dbpedia.org/resource/Oath_(horse)
p1023
V62
p1024
sVhttp://dbpedia.org/resource/Pseudohemihyalea_ambigua
p1025
V32
p1026
sVhttp://dbpedia.org/resource/North_African_elephant
p1027
V41
p1028
sVhttp://dbpedia.org/resource/Sunday_Silence
p1029
V64
p1030
sVhttp://dbpedia.org/resource/Levmoss
p1031
V60
p1032
sVhttp://dbpedia.org/resource/Herod_(horse)
p1033
V56
p1034
sVhttp://dbpedia.org/resource/Polistes_crinitus
p1035
V29
p1036
sVhttp://dbpedia.org/resource/Durbar_(horse)
p1037
V58
p1038
sVhttp://dbpedia.org/resource/Tasmanian_emu
p1039
V48
p1040
sVhttp://dbpedia.org/resource/Imagine_(horse)
p1041
V65
p1042
sVhttp://dbpedia.org/resource/Fifinella_(horse)
p1043
V64
p1044
sVhttp://dbpedia.org/resource/Perfect_Shirl
p1045
V57
p1046
sVhttp://dbpedia.org/resource/St._Simon_(horse)
p1047
V65
p1048
sVhttp://dbpedia.org/resource/Omphalotus_nidiformis
p1049
V41
p1050
sVhttp://dbpedia.org/resource/Salvia_fruticosa
p1051
V34
p1052
sVhttp://dbpedia.org/resource/Bougainville_monkey-faced_bat
p1053
V33
p1054
sVhttp://dbpedia.org/resource/Chance_Play
p1055
V67
p1056
sVhttp://dbpedia.org/resource/Pigeon_pea
p1057
V68
p1058
sVhttp://dbpedia.org/resource/Middleton_(horse)
p1059
V59
p1060
sVhttp://dbpedia.org/resource/Supreme_Court_(horse)
p1061
V58
p1062
sVhttp://dbpedia.org/resource/Tuber_gibbosum
p1063
V31
p1064
sVhttp://dbpedia.org/resource/Paragyrodon
p1065
V30
p1066
sVhttp://dbpedia.org/resource/Cantharellus_friesii
p1067
V31
p1068
sVhttp://dbpedia.org/resource/Mycena_vitilis
p1069
V33
p1070
sVhttp://dbpedia.org/resource/Northern_Queen
p1071
V32
p1072
sVhttp://dbpedia.org/resource/Moses_(horse)
p1073
V59
p1074
sVhttp://dbpedia.org/resource/Diadem_(horse)
p1075
V60
p1076
sVhttp://dbpedia.org/resource/Synodontis_pleurops
p1077
V32
p1078
sVhttp://dbpedia.org/resource/Galtee_More
p1079
V61
p1080
sVhttp://dbpedia.org/resource/Phoenix_Reach
p1081
V56
p1082
sVhttp://dbpedia.org/resource/Auricularia_auricula-judae
p1083
V48
p1084
sVhttp://dbpedia.org/resource/Persian_Heights
p1085
V56
p1086
sVhttp://dbpedia.org/resource/Haddock
p1087
V58
p1088
sVhttp://dbpedia.org/resource/Man_o'_War
p1089
V67
p1090
sVhttp://dbpedia.org/resource/Megahertz_(horse)
p1091
V29
p1092
sVhttp://dbpedia.org/resource/Synodontis_longirostris
p1093
V32
p1094
sVhttp://dbpedia.org/resource/Fennel
p1095
V59
p1096
sVhttp://dbpedia.org/resource/Moon_Madness
p1097
V56
p1098
sVhttp://dbpedia.org/resource/Carroll_House
p1099
V61
p1100
sVhttp://dbpedia.org/resource/Relko
p1101
V59
p1102
sVhttp://dbpedia.org/resource/Llanos_long-nosed_armadillo
p1103
V39
p1104
sVhttp://dbpedia.org/resource/Miss_Andretti
p1105
V62
p1106
sVhttp://dbpedia.org/resource/Dance_Smartly
p1107
V66
p1108
sVhttp://dbpedia.org/resource/Lily_of_the_Valley_(horse)
p1109
V58
p1110
sVhttp://dbpedia.org/resource/Goldikova
p1111
V64
p1112
sVhttp://dbpedia.org/resource/Spruce_grouse
p1113
V49
p1114
sVhttp://dbpedia.org/resource/Bloomsbury_(horse)
p1115
V56
p1116
sVhttp://dbpedia.org/resource/Crowned_Prince
p1117
V61
p1118
sVhttp://dbpedia.org/resource/Coronach_(horse)
p1119
V58
p1120
sVhttp://dbpedia.org/resource/Mantis
p1121
V33
p1122
sVhttp://dbpedia.org/resource/Les_Arcs_(horse)
p1123
V60
p1124
sVhttp://dbpedia.org/resource/Flanders_(horse)
p1125
V59
p1126
sVhttp://dbpedia.org/resource/Warning_(horse)
p1127
V63
p1128
sVhttp://dbpedia.org/resource/Yellow-headed_water_monitor
p1129
V35
p1130
sVhttp://dbpedia.org/resource/Distant_View
p1131
V61
p1132
sVhttp://dbpedia.org/resource/Eclipse_(horse)
p1133
V63
p1134
sVhttp://dbpedia.org/resource/Chamant_(horse)
p1135
V59
p1136
sVhttp://dbpedia.org/resource/Brachypelma_emilia
p1137
V33
p1138
sVhttp://dbpedia.org/resource/Commanche_Run
p1139
V57
p1140
sVhttp://dbpedia.org/resource/Fiftyshadesofhay
p1141
V60
p1142
sVhttp://dbpedia.org/resource/Birdcatcher
p1143
V54
p1144
sVhttp://dbpedia.org/resource/Princessnesian
p1145
V61
p1146
sVhttp://dbpedia.org/resource/Ayrshire_(horse)
p1147
V59
p1148
sVhttp://dbpedia.org/resource/Polycheles_typhlops
p1149
V32
p1150
sVhttp://dbpedia.org/resource/Intrepidity_(horse)
p1151
V64
p1152
sVhttp://dbpedia.org/resource/Shahtoush
p1153
V61
p1154
sVhttp://dbpedia.org/resource/Bayern_(horse)
p1155
V61
p1156
sVhttp://dbpedia.org/resource/Octagonal_(horse)
p1157
V62
p1158
sVhttp://dbpedia.org/resource/Sir_Harry_Lewis
p1159
V59
p1160
sVhttp://dbpedia.org/resource/Synodontis_leopardinus
p1161
V33
p1162
sVhttp://dbpedia.org/resource/Bidens_wiebkei
p1163
V31
p1164
sVhttp://dbpedia.org/resource/Southern_hognose_snake
p1165
V36
p1166
sVhttp://dbpedia.org/resource/Typhlops_vermicularis
p1167
V36
p1168
sVhttp://dbpedia.org/resource/Brown_bear
p1169
V49
p1170
sVhttp://dbpedia.org/resource/Phosphorus_(horse)
p1171
V57
p1172
sVhttp://dbpedia.org/resource/Amanita_atkinsoniana
p1173
V32
p1174
sVhttp://dbpedia.org/resource/Amorphophallus_titanum
p1175
V39
p1176
sVhttp://dbpedia.org/resource/White-fin_smooth-hound
p1177
V34
p1178
sVhttp://dbpedia.org/resource/Kingcraft
p1179
V60
p1180
sVhttp://dbpedia.org/resource/Cape_lion
p1181
V47
p1182
sVhttp://dbpedia.org/resource/Flirting_Around
p1183
V57
p1184
sVhttp://dbpedia.org/resource/Tille_trevally
p1185
V30
p1186
sVhttp://dbpedia.org/resource/Sardanapale_(horse)
p1187
V58
p1188
sVhttp://dbpedia.org/resource/Cyborgo
p1189
V54
p1190
sVhttp://dbpedia.org/resource/Faultless
p1191
V58
p1192
sVhttp://dbpedia.org/resource/Rainbow_Quest_(horse)
p1193
V61
p1194
sVhttp://dbpedia.org/resource/Suillus_sibiricus
p1195
V35
p1196
sVhttp://dbpedia.org/resource/Kostroma_(horse)
p1197
V58
p1198
sVhttp://dbpedia.org/resource/Platyceps_najadum
p1199
V42
p1200
sVhttp://dbpedia.org/resource/Savigny's_agama
p1201
V43
p1202
sVhttp://dbpedia.org/resource/New_Mexico_chile
p1203
V45
p1204
sVhttp://dbpedia.org/resource/Dactyladenia_mannii
p1205
V32
p1206
sVhttp://dbpedia.org/resource/Ziziphus_spina-christi
p1207
V33
p1208
sVhttp://dbpedia.org/resource/Gang_Forward
p1209
V58
p1210
sVhttp://dbpedia.org/resource/Psilocybe_hispanica
p1211
V39
p1212
sVhttp://dbpedia.org/resource/Tobougg
p1213
V63
p1214
sVhttp://dbpedia.org/resource/Buoy_(horse)
p1215
V57
p1216
sVhttp://dbpedia.org/resource/Durian
p1217
V74
p1218
sVhttp://dbpedia.org/resource/Turquoise_(horse)
p1219
V58
p1220
sVhttp://dbpedia.org/resource/High_Chaparral
p1221
V66
p1222
sVhttp://dbpedia.org/resource/Dixie_Union_(horse)
p1223
V58
p1224
sVhttp://dbpedia.org/resource/Nobiz_Like_Shobiz
p1225
V30
p1226
sVhttp://dbpedia.org/resource/Mantidactylus_blommersae
p1227
V32
p1228
sVhttp://dbpedia.org/resource/Bee_Bee_Bee
p1229
V56
p1230
sVhttp://dbpedia.org/resource/Kingsway_(horse)
p1231
V57
p1232
sVhttp://dbpedia.org/resource/Polish_Patriot
p1233
V56
p1234
sVhttp://dbpedia.org/resource/Hill's_shrew
p1235
V26
p1236
sVhttp://dbpedia.org/resource/Manilkara_zapota
p1237
V47
p1238
sVhttp://dbpedia.org/resource/Bletchingly
p1239
V59
p1240
sVhttp://dbpedia.org/resource/Many_Clouds
p1241
V62
p1242
sVhttp://dbpedia.org/resource/Saucy_Sue
p1243
V58
p1244
sVhttp://dbpedia.org/resource/Transandinomys
p1245
V33
p1246
sVhttp://dbpedia.org/resource/Surplice_(horse)
p1247
V62
p1248
sVhttp://dbpedia.org/resource/Fedorov's_catshark
p1249
V30
p1250
sVhttp://dbpedia.org/resource/Synodontis_melanopterus
p1251
V32
p1252
sVhttp://dbpedia.org/resource/Sun_Princess_(horse)
p1253
V62
p1254
sVhttp://dbpedia.org/resource/Greek_Money
p1255
V60
p1256
sVhttp://dbpedia.org/resource/Synodontis_ornatissimus
p1257
V32
p1258
sVhttp://dbpedia.org/resource/Russula_heterophylla
p1259
V29
p1260
sVhttp://dbpedia.org/resource/Barley
p1261
V70
p1262
sVhttp://dbpedia.org/resource/Monsun
p1263
V58
p1264
sVhttp://dbpedia.org/resource/Mastery_(horse)
p1265
V63
p1266
sVhttp://dbpedia.org/resource/McCord's_box_turtle
p1267
V32
p1268
sVhttp://dbpedia.org/resource/Limonium_perezii
p1269
V32
p1270
sVhttp://dbpedia.org/resource/Voltaire_(racehorse)
p1271
V58
p1272
sVhttp://dbpedia.org/resource/Rousillon_(horse)
p1273
V61
p1274
sVhttp://dbpedia.org/resource/Royal_Applause
p1275
V65
p1276
sVhttp://dbpedia.org/resource/Hyperion_(horse)
p1277
V64
p1278
sVhttp://dbpedia.org/resource/Barefoot_(horse)
p1279
V59
p1280
sVhttp://dbpedia.org/resource/Irish_Elegance
p1281
V58
p1282
sVhttp://dbpedia.org/resource/Ipi_Tombe
p1283
V32
p1284
sVhttp://dbpedia.org/resource/Hawaiian_Sound
p1285
V57
p1286
sVhttp://dbpedia.org/resource/Sea_Moon
p1287
V59
p1288
sVhttp://dbpedia.org/resource/Masai_giraffe
p1289
V44
p1290
sVhttp://dbpedia.org/resource/Plectania_nannfeldtii
p1291
V36
p1292
sVhttp://dbpedia.org/resource/Rhoda_(horse)
p1293
V59
p1294
sVhttp://dbpedia.org/resource/Groovy_(horse)
p1295
V58
p1296
sVhttp://dbpedia.org/resource/Zino_(horse)
p1297
V59
p1298
sVhttp://dbpedia.org/resource/Gooseberry
p1299
V61
p1300
sVhttp://dbpedia.org/resource/Gilles_de_Retz_(horse)
p1301
V57
p1302
sVhttp://dbpedia.org/resource/L'Emigrant
p1303
V61
p1304
sVhttp://dbpedia.org/resource/Caracalla_(horse)
p1305
V58
p1306
sVhttp://dbpedia.org/resource/Ocean_Swell
p1307
V58
p1308
sVhttp://dbpedia.org/resource/Noble_Mission
p1309
V66
p1310
sVhttp://dbpedia.org/resource/Nocturnal_Spree
p1311
V57
p1312
sVhttp://dbpedia.org/resource/Apple
p1313
V96
p1314
sVhttp://dbpedia.org/resource/Kris_(horse)
p1315
V61
p1316
sVhttp://dbpedia.org/resource/Afleet_Alex
p1317
V60
p1318
sVhttp://dbpedia.org/resource/Princeful
p1319
V57
p1320
sVhttp://dbpedia.org/resource/Cystoderma_carcharias
p1321
V32
p1322
sVhttp://dbpedia.org/resource/Andrias_scheuchzeri
p1323
V38
p1324
sVhttp://dbpedia.org/resource/Noble_Nashua
p1325
V60
p1326
sVhttp://dbpedia.org/resource/Pearl_River_map_turtle
p1327
V31
p1328
sVhttp://dbpedia.org/resource/Blue_Man_(horse)
p1329
V57
p1330
sVhttp://dbpedia.org/resource/Rhinobatos_annandalei
p1331
V28
p1332
sVhttp://dbpedia.org/resource/Telescope_(horse)
p1333
V59
p1334
sVhttp://dbpedia.org/resource/Sam_(horse)
p1335
V57
p1336
sVhttp://dbpedia.org/resource/Moonax
p1337
V65
p1338
sVhttp://dbpedia.org/resource/Theba_pisana
p1339
V36
p1340
sVhttp://dbpedia.org/resource/Gila_monster
p1341
V42
p1342
sVhttp://dbpedia.org/resource/Conocybe_rickenii
p1343
V32
p1344
sVhttp://dbpedia.org/resource/Black-chinned_monarch
p1345
V34
p1346
sVhttp://dbpedia.org/resource/Phalanx_(horse)
p1347
V58
p1348
sVhttp://dbpedia.org/resource/A_P_Valentine
p1349
V60
p1350
sVhttp://dbpedia.org/resource/Brigadier_Gerard_(horse)
p1351
V62
p1352
sVhttp://dbpedia.org/resource/Steller's_sea_eagle
p1353
V52
p1354
sVhttp://dbpedia.org/resource/American_bison
p1355
V58
p1356
sVhttp://dbpedia.org/resource/Dernier_Empereur
p1357
V58
p1358
sVhttp://dbpedia.org/resource/Harrisia_fragrans
p1359
V28
p1360
sVhttp://dbpedia.org/resource/Amanita_daucipes
p1361
V33
p1362
sVhttp://dbpedia.org/resource/Synodontis_flavitaeniatus
p1363
V33
p1364
sVhttp://dbpedia.org/resource/Night_of_Thunder_(horse)
p1365
V62
p1366
sVhttp://dbpedia.org/resource/Researcher_(horse)
p1367
V58
p1368
sVhttp://dbpedia.org/resource/Chum_salmon
p1369
V72
p1370
sVhttp://dbpedia.org/resource/Orange_Bay_(horse)
p1371
V56
p1372
sVhttp://dbpedia.org/resource/Inglis_Drever
p1373
V58
p1374
sVhttp://dbpedia.org/resource/Amanita_nehuta
p1375
V35
p1376
sVhttp://dbpedia.org/resource/Golden_Horn_(horse)
p1377
V60
p1378
sVhttp://dbpedia.org/resource/Connaught_(horse)
p1379
V60
p1380
sVhttp://dbpedia.org/resource/Lepiota_subincarnata
p1381
V31
p1382
sVhttp://dbpedia.org/resource/Policeman_(horse)
p1383
V55
p1384
sVhttp://dbpedia.org/resource/Flying_Water
p1385
V60
p1386
sVhttp://dbpedia.org/resource/Provoke_(horse)
p1387
V58
p1388
sVhttp://dbpedia.org/resource/Joshua_Tree_(horse)
p1389
V96
p1390
sVhttp://dbpedia.org/resource/Stomopneustes_variolaris
p1391
V30
p1392
sVhttp://dbpedia.org/resource/Favorite_Trick
p1393
V60
p1394
sVhttp://dbpedia.org/resource/Guadalcanal_monkey-faced_bat
p1395
V32
p1396
sVhttp://dbpedia.org/resource/Asplenium_bradleyi
p1397
V33
p1398
sVhttp://dbpedia.org/resource/Aristides_(horse)
p1399
V67
p1400
sVhttp://dbpedia.org/resource/My_Babu
p1401
V58
p1402
sVhttp://dbpedia.org/resource/Ophrys_fuciflora
p1403
V35
p1404
sVhttp://dbpedia.org/resource/Faugheen
p1405
V59
p1406
sVhttp://dbpedia.org/resource/Reliance_(horse)
p1407
V59
p1408
sVhttp://dbpedia.org/resource/Ballymoss
p1409
V64
p1410
sVhttp://dbpedia.org/resource/American_ginseng
p1411
V35
p1412
sVhttp://dbpedia.org/resource/Mouse
p1413
V49
p1414
sVhttp://dbpedia.org/resource/Farda_Amiga
p1415
V59
p1416
sVhttp://dbpedia.org/resource/Algan_(horse)
p1417
V54
p1418
sVhttp://dbpedia.org/resource/Pleasant_Colony
p1419
V62
p1420
sVhttp://dbpedia.org/resource/Taiki_Shuttle
p1421
V35
p1422
sVhttp://dbpedia.org/resource/Turkhan
p1423
V58
p1424
sVhttp://dbpedia.org/resource/Lord_Kanaloa
p1425
V60
p1426
sVhttp://dbpedia.org/resource/Podochilus_australiensis
p1427
V31
p1428
sVhttp://dbpedia.org/resource/Phil_Drake
p1429
V59
p1430
sVhttp://dbpedia.org/resource/Dortmund_(horse)
p1431
V61
p1432
sVhttp://dbpedia.org/resource/Southern_dogfish
p1433
V29
p1434
sVhttp://dbpedia.org/resource/Vordermann's_pipistrelle
p1435
V31
p1436
sVhttp://dbpedia.org/resource/Pretty_Polly_(horse)
p1437
V60
p1438
sVhttp://dbpedia.org/resource/Alysheba
p1439
V67
p1440
sVhttp://dbpedia.org/resource/Pearsonia_cajanifolia
p1441
V32
p1442
sVhttp://dbpedia.org/resource/Bireme_(horse)
p1443
V59
p1444
sVhttp://dbpedia.org/resource/Itsmyluckyday
p1445
V58
p1446
sVhttp://dbpedia.org/resource/Catocala_elocata
p1447
V33
p1448
sVhttp://dbpedia.org/resource/Princess_of_Sylmar
p1449
V58
p1450
sVhttp://dbpedia.org/resource/Sea_The_Moon
p1451
V59
p1452
sVhttp://dbpedia.org/resource/Amanita_parcivolvata
p1453
V32
p1454
sVhttp://dbpedia.org/resource/Shalaa
p1455
V58
p1456
sVhttp://dbpedia.org/resource/Caracara_(genus)
p1457
V38
p1458
sVhttp://dbpedia.org/resource/Synodontis_cuangoanus
p1459
V32
p1460
sVhttp://dbpedia.org/resource/Entrepreneur_(horse)
p1461
V61
p1462
sVhttp://dbpedia.org/resource/Rhododendron_subsect._Brachycalyx
p1463
V29
p1464
sVhttp://dbpedia.org/resource/Crusader_(horse)
p1465
V64
p1466
sVhttp://dbpedia.org/resource/Piccolo_(horse)
p1467
V57
p1468
sVhttp://dbpedia.org/resource/Garden_Path
p1469
V56
p1470
sVhttp://dbpedia.org/resource/Galileo_Rock
p1471
V58
p1472
sVhttp://dbpedia.org/resource/Sayani_(horse)
p1473
V55
p1474
sVhttp://dbpedia.org/resource/Amanita_australis
p1475
V38
p1476
sVhttp://dbpedia.org/resource/Alcohol_(horse)
p1477
V59
p1478
sVhttp://dbpedia.org/resource/Soothsayer_(horse)
p1479
V61
p1480
sVhttp://dbpedia.org/resource/Bitty_Girl
p1481
V57
p1482
sVhttp://dbpedia.org/resource/Velocipede_(horse)
p1483
V57
p1484
sVhttp://dbpedia.org/resource/Marvellous_(horse)
p1485
V62
p1486
sVhttp://dbpedia.org/resource/Bahamian_Pirate
p1487
V56
p1488
sVhttp://dbpedia.org/resource/Orius_insidiosus
p1489
V31
p1490
sVhttp://dbpedia.org/resource/Redcurrant
p1491
V63
p1492
sVhttp://dbpedia.org/resource/Zephyr_Bay
p1493
V55
p1494
sVhttp://dbpedia.org/resource/Common_fig
p1495
V89
p1496
sVhttp://dbpedia.org/resource/Eye_of_the_Leopard_(horse)
p1497
V63
p1498
sVhttp://dbpedia.org/resource/Scintillate_(horse)
p1499
V59
p1500
sVhttp://dbpedia.org/resource/Taraxacum_officinale
p1501
V66
p1502
sVhttp://dbpedia.org/resource/Horalabiosa_arunachalami
p1503
V26
p1504
sVhttp://dbpedia.org/resource/Colias_dimera
p1505
V40
p1506
sVhttp://dbpedia.org/resource/Spotted_eagle_ray
p1507
V45
p1508
sVhttp://dbpedia.org/resource/Hylarana_tytleri
p1509
V31
p1510
sVhttp://dbpedia.org/resource/Breadfruit
p1511
V70
p1512
sVhttp://dbpedia.org/resource/Midnight_Lute
p1513
V32
p1514
sVhttp://dbpedia.org/resource/Valais_shrew
p1515
V32
p1516
sVhttp://dbpedia.org/resource/Riverqueen
p1517
V57
p1518
sVhttp://dbpedia.org/resource/Saoirse_(horse)
p1519
V31
p1520
sVhttp://dbpedia.org/resource/Fairy_Footsteps
p1521
V58
p1522
sVhttp://dbpedia.org/resource/Eight_Belles
p1523
V61
p1524
sVhttp://dbpedia.org/resource/Dankaro
p1525
V60
p1526
sVhttp://dbpedia.org/resource/Pine_Bluff_(horse)
p1527
V60
p1528
sVhttp://dbpedia.org/resource/Coronation_(French_horse)
p1529
V60
p1530
sVhttp://dbpedia.org/resource/Grey-hooded_parakeet
p1531
V31
p1532
sVhttp://dbpedia.org/resource/Sir_Harry
p1533
V57
p1534
sVhttp://dbpedia.org/resource/Daedalus_(horse)
p1535
V57
p1536
sVhttp://dbpedia.org/resource/Bakharoff
p1537
V60
p1538
sVhttp://dbpedia.org/resource/Voltigeur_(horse)
p1539
V61
p1540
sVhttp://dbpedia.org/resource/Lochangel
p1541
V57
p1542
sVhttp://dbpedia.org/resource/Selkirk_(horse)
p1543
V62
p1544
sVhttp://dbpedia.org/resource/Ragusa_(horse)
p1545
V61
p1546
sVhttp://dbpedia.org/resource/Fabius_(horse)
p1547
V60
p1548
sVhttp://dbpedia.org/resource/Ballydoyle_(horse)
p1549
V60
p1550
sVhttp://dbpedia.org/resource/Neo_Universe
p1551
V58
p1552
sVhttp://dbpedia.org/resource/Capot
p1553
V63
p1554
sVhttp://dbpedia.org/resource/Phrynocephalus_persicus
p1555
V35
p1556
sVhttp://dbpedia.org/resource/Remingtonocetidae
p1557
V36
p1558
sVhttp://dbpedia.org/resource/Neil_Gow
p1559
V61
p1560
sVhttp://dbpedia.org/resource/Fiveforthree
p1561
V60
p1562
sVhttp://dbpedia.org/resource/Sumatran_orangutan
p1563
V57
p1564
sVhttp://dbpedia.org/resource/Barbaro
p1565
V65
p1566
sVhttp://dbpedia.org/resource/Iris_wattii
p1567
V29
p1568
sVhttp://dbpedia.org/resource/Bontebok
p1569
V50
p1570
sVhttp://dbpedia.org/resource/Ladas_(horse)
p1571
V61
p1572
sVhttp://dbpedia.org/resource/Synodontis_depauwi
p1573
V32
p1574
sVhttp://dbpedia.org/resource/Damascus_(horse)
p1575
V64
p1576
sVhttp://dbpedia.org/resource/Longan
p1577
V80
p1578
sVhttp://dbpedia.org/resource/What_A_Nuisance
p1579
V53
p1580
sVhttp://dbpedia.org/resource/Synodontis_alberti
p1581
V32
p1582
sVhttp://dbpedia.org/resource/Rhodesian_giraffe
p1583
V40
p1584
sVhttp://dbpedia.org/resource/Hever_Golf_Rose
p1585
V60
p1586
sVhttp://dbpedia.org/resource/Tetronarce_macneilli
p1587
V27
p1588
sVhttp://dbpedia.org/resource/Tapestry_(horse)
p1589
V63
p1590
sVhttp://dbpedia.org/resource/Dryocalamus_davisonii
p1591
V29
p1592
sVhttp://dbpedia.org/resource/Nijinsky_(horse)
p1593
V67
p1594
sVhttp://dbpedia.org/resource/Achievement_(horse)
p1595
V54
p1596
sVhttp://dbpedia.org/resource/Treasure_Beach_(horse)
p1597
V31
p1598
sVhttp://dbpedia.org/resource/Roystonea_violacea
p1599
V27
p1600
sVhttp://dbpedia.org/resource/Spur_(horse)
p1601
V59
p1602
sVhttp://dbpedia.org/resource/Synodontis_nummifer
p1603
V32
p1604
sVhttp://dbpedia.org/resource/Take_Charge_Lady
p1605
V58
p1606
sVhttp://dbpedia.org/resource/The_Colonel_(horse)
p1607
V60
p1608
sVhttp://dbpedia.org/resource/Nononito
p1609
V57
p1610
sVhttp://dbpedia.org/resource/Star_Kingdom
p1611
V63
p1612
sVhttp://dbpedia.org/resource/Psilocybe_aztecorum
p1613
V38
p1614
sVhttp://dbpedia.org/resource/Blue_Gown
p1615
V59
p1616
sVhttp://dbpedia.org/resource/Zabara_(horse)
p1617
V58
p1618
sVhttp://dbpedia.org/resource/Arabian_oryx
p1619
V51
p1620
sVhttp://dbpedia.org/resource/African_fish_eagle
p1621
V45
p1622
sVhttp://dbpedia.org/resource/Flintshire_(horse)
p1623
V60
p1624
sVhttp://dbpedia.org/resource/Amanita_frostiana
p1625
V33
p1626
sVhttp://dbpedia.org/resource/Tapirus_kabomani
p1627
V39
p1628
sVhttp://dbpedia.org/resource/Bowhead_whale
p1629
V53
p1630
sVhttp://dbpedia.org/resource/Vigil_II
p1631
V54
p1632
sVhttp://dbpedia.org/resource/Lampropeltis_getula
p1633
V33
p1634
sVhttp://dbpedia.org/resource/Topi
p1635
V42
p1636
sVhttp://dbpedia.org/resource/Phoenicolacerta_laevis
p1637
V40
p1638
sVhttp://dbpedia.org/resource/Cambremer_(horse)
p1639
V61
p1640
sVhttp://dbpedia.org/resource/Roborovski_hamster
p1641
V54
p1642
sVhttp://dbpedia.org/resource/Canarium_ovatum
p1643
V78
p1644
sVhttp://dbpedia.org/resource/Wool_Winder
p1645
V58
p1646
sVhttp://dbpedia.org/resource/Deinandra_minthornii
p1647
V30
p1648
sVhttp://dbpedia.org/resource/Is_It_True_(horse)
p1649
V61
p1650
sVhttp://dbpedia.org/resource/North_Light
p1651
V61
p1652
sVhttp://dbpedia.org/resource/Sebring_(horse)
p1653
V57
p1654
sVhttp://dbpedia.org/resource/Kohlrabi
p1655
V67
p1656
sVhttp://dbpedia.org/resource/Hasili_(horse)
p1657
V57
p1658
sVhttp://dbpedia.org/resource/Meisho_Samson
p1659
V61
p1660
sVhttp://dbpedia.org/resource/Pomelo
p1661
V63
p1662
sVhttp://dbpedia.org/resource/Rhinorex
p1663
V35
p1664
sVhttp://dbpedia.org/resource/Black-eyed_pea
p1665
V50
p1666
sVhttp://dbpedia.org/resource/African_threadfish
p1667
V43
p1668
sVhttp://dbpedia.org/resource/Gymnopilus_maritimus
p1669
V36
p1670
sVhttp://dbpedia.org/resource/Grand_Lodge_(horse)
p1671
V60
p1672
sVhttp://dbpedia.org/resource/Gustavus_(horse)
p1673
V58
p1674
sVhttp://dbpedia.org/resource/Malpolon_monspessulanus
p1675
V44
p1676
sVhttp://dbpedia.org/resource/Challedon
p1677
V64
p1678
sVhttp://dbpedia.org/resource/Mottled_skate
p1679
V27
p1680
sVhttp://dbpedia.org/resource/Rite_of_Passage_(horse)
p1681
V61
p1682
sVhttp://dbpedia.org/resource/Elm_Park_(horse)
p1683
V58
p1684
sVhttp://dbpedia.org/resource/Gleneagles_(horse)
p1685
V64
p1686
sVhttp://dbpedia.org/resource/Schoenoplectus_lacustris
p1687
V36
p1688
sVhttp://dbpedia.org/resource/Gate_Dancer
p1689
V61
p1690
sVhttp://dbpedia.org/resource/Spinach
p1691
V68
p1692
sVhttp://dbpedia.org/resource/Taruca
p1693
V46
p1694
sVhttp://dbpedia.org/resource/Dactyladenia_dichotoma
p1695
V33
p1696
sVhttp://dbpedia.org/resource/Admire_Rakti
p1697
V58
p1698
sVhttp://dbpedia.org/resource/Beta_vulgaris
p1699
V65
p1700
sVhttp://dbpedia.org/resource/Black-necked_stilt
p1701
V38
p1702
sVhttp://dbpedia.org/resource/Synodontis_sorex
p1703
V32
p1704
sVhttp://dbpedia.org/resource/Brussels_sprout
p1705
V48
p1706
sVhttp://dbpedia.org/resource/Dawn_Approach
p1707
V65
p1708
sVhttp://dbpedia.org/resource/Fiorente
p1709
V62
p1710
sVhttp://dbpedia.org/resource/Grapefruit
p1711
V76
p1712
sVhttp://dbpedia.org/resource/Volodyovski
p1713
V60
p1714
sVhttp://dbpedia.org/resource/Cedric_(horse)
p1715
V57
p1716
sVhttp://dbpedia.org/resource/Thylacine
p1717
V58
p1718
sVhttp://dbpedia.org/resource/Well_Chief
p1719
V58
p1720
sVhttp://dbpedia.org/resource/Cardinal_Beaufort_(horse)
p1721
V56
p1722
sVhttp://dbpedia.org/resource/Boletus_rubroflammeus
p1723
V35
p1724
sVhttp://dbpedia.org/resource/Zeal_(horse)
p1725
V58
p1726
sVhttp://dbpedia.org/resource/Prunella_(horse)
p1727
V62
p1728
sVhttp://dbpedia.org/resource/Coventry_(horse)
p1729
V57
p1730
sVhttp://dbpedia.org/resource/Synodontis_rebeli
p1731
V32
p1732
sVhttp://dbpedia.org/resource/Polar_Falcon
p1733
V58
p1734
sVhttp://dbpedia.org/resource/Eclair_au_Chocolat
p1735
V57
p1736
sVhttp://dbpedia.org/resource/Black_Caviar
p1737
V69
p1738
sVhttp://dbpedia.org/resource/Tamarind
p1739
V66
p1740
sVhttp://dbpedia.org/resource/Islington_(horse)
p1741
V66
p1742
sVhttp://dbpedia.org/resource/Nebos
p1743
V58
p1744
sVhttp://dbpedia.org/resource/Master_Derby
p1745
V57
p1746
sVhttp://dbpedia.org/resource/Legal_Case
p1747
V58
p1748
sVhttp://dbpedia.org/resource/More_Of_That
p1749
V60
p1750
sVhttp://dbpedia.org/resource/Urophora_affinis
p1751
V27
p1752
sVhttp://dbpedia.org/resource/Gray_wolf
p1753
V57
p1754
sVhttp://dbpedia.org/resource/Intello
p1755
V62
p1756
sVhttp://dbpedia.org/resource/Legousia
p1757
V33
p1758
sVhttp://dbpedia.org/resource/Shoot_A_Line
p1759
V59
p1760
sVhttp://dbpedia.org/resource/Toast_of_New_York
p1761
V56
p1762
sVhttp://dbpedia.org/resource/Soviet_Star
p1763
V58
p1764
sVhttp://dbpedia.org/resource/Tricholoma_pardinum
p1765
V43
p1766
sVhttp://dbpedia.org/resource/Pseudocolus_fusiformis
p1767
V32
p1768
sVhttp://dbpedia.org/resource/Muhaarar
p1769
V60
p1770
sVhttp://dbpedia.org/resource/Shared_Belief
p1771
V63
p1772
sVhttp://dbpedia.org/resource/Prolagus_oeningensis
p1773
V30
p1774
sVhttp://dbpedia.org/resource/Double_Trigger
p1775
V61
p1776
sVhttp://dbpedia.org/resource/Tiggy_Wiggy
p1777
V58
p1778
sVhttp://dbpedia.org/resource/Oeceoclades
p1779
V32
p1780
sVhttp://dbpedia.org/resource/King_of_Kings_(horse)
p1781
V61
p1782
sVhttp://dbpedia.org/resource/Fairy_King_Prawn
p1783
V60
p1784
sVhttp://dbpedia.org/resource/Clarias_gariepinus
p1785
V35
p1786
sVhttp://dbpedia.org/resource/Mid-day_Sun
p1787
V62
p1788
sVhttp://dbpedia.org/resource/Capsicum_annuum
p1789
V47
p1790
sVhttp://dbpedia.org/resource/Treve_(horse)
p1791
V66
p1792
sVhttp://dbpedia.org/resource/Andrias
p1793
V37
p1794
sVhttp://dbpedia.org/resource/Arbar_(horse)
p1795
V60
p1796
sVhttp://dbpedia.org/resource/Cannabaceae
p1797
V34
p1798
sVhttp://dbpedia.org/resource/Spotted_owl
p1799
V51
p1800
sVhttp://dbpedia.org/resource/Tukeit_Hill_frog
p1801
V50
p1802
sVhttp://dbpedia.org/resource/Marwell_(horse)
p1803
V58
p1804
sVhttp://dbpedia.org/resource/Whizgig
p1805
V59
p1806
sVhttp://dbpedia.org/resource/Burrough_Hill_Lad
p1807
V57
p1808
sVhttp://dbpedia.org/resource/Matt's_Scooter
p1809
V56
p1810
sVhttp://dbpedia.org/resource/Soviet_Song
p1811
V66
p1812
sVhttp://dbpedia.org/resource/Vespa_(horse)
p1813
V59
p1814
sVhttp://dbpedia.org/resource/Found_(horse)
p1815
V61
p1816
sVhttp://dbpedia.org/resource/Simple_Verse
p1817
V57
p1818
sVhttp://dbpedia.org/resource/Sir_Slick
p1819
V57
p1820
sVhttp://dbpedia.org/resource/Southern_carmine_bee-eater
p1821
V37
p1822
sVhttp://dbpedia.org/resource/Lookin_At_Lucky
p1823
V61
p1824
sVhttp://dbpedia.org/resource/Paralaxita_telesia
p1825
V29
p1826
sVhttp://dbpedia.org/resource/Sarracenia_jonesii
p1827
V33
p1828
sVhttp://dbpedia.org/resource/Spinner_dolphin
p1829
V47
p1830
sVhttp://dbpedia.org/resource/Bago_(horse)
p1831
V66
p1832
sVhttp://dbpedia.org/resource/Galopin
p1833
V63
p1834
sVhttp://dbpedia.org/resource/Assert_(horse)
p1835
V63
p1836
sVhttp://dbpedia.org/resource/Sir_Taurus
p1837
V57
p1838
sVhttp://dbpedia.org/resource/Western_bowerbird
p1839
V37
p1840
sVhttp://dbpedia.org/resource/Quest_for_Fame_(horse)
p1841
V65
p1842
sVhttp://dbpedia.org/resource/Guadeloupe_raccoon
p1843
V42
p1844
sVhttp://dbpedia.org/resource/Adelophis_copei
p1845
V33
p1846
sVhttp://dbpedia.org/resource/Danoli
p1847
V56
p1848
sVhttp://dbpedia.org/resource/Foxhall_(horse)
p1849
V61
p1850
sVhttp://dbpedia.org/resource/Phrictus_quinquepartitus
p1851
V29
p1852
sVhttp://dbpedia.org/resource/Amanita_onusta
p1853
V32
p1854
sVhttp://dbpedia.org/resource/She_Be_Wild
p1855
V62
p1856
sVhttp://dbpedia.org/resource/Patella_caerulea
p1857
V35
p1858
sVhttp://dbpedia.org/resource/Le_Moss
p1859
V60
p1860
sVhttp://dbpedia.org/resource/Reckless_Abandon_(horse)
p1861
V58
p1862
sVhttp://dbpedia.org/resource/Queen's_Hussar
p1863
V58
p1864
sVhttp://dbpedia.org/resource/Porthidium_hespere
p1865
V33
p1866
sVhttp://dbpedia.org/resource/Vagrancy_(horse)
p1867
V33
p1868
sVhttp://dbpedia.org/resource/Back_In_Front
p1869
V58
p1870
sVhttp://dbpedia.org/resource/Haru_Urara
p1871
V53
p1872
sVhttp://dbpedia.org/resource/Large_tree_finch
p1873
V35
p1874
sVhttp://dbpedia.org/resource/Ross's_turaco
p1875
V36
p1876
sVhttp://dbpedia.org/resource/Symboli_Rudolf
p1877
V60
p1878
sVhttp://dbpedia.org/resource/Imperial_Commander_(horse)
p1879
V52
p1880
sVhttp://dbpedia.org/resource/William_the_Third_(horse)
p1881
V59
p1882
sVhttp://dbpedia.org/resource/Zabeel
p1883
V64
p1884
sVhttp://dbpedia.org/resource/Miesque
p1885
V66
p1886
sVhttp://dbpedia.org/resource/Jupiter_Island_(horse)
p1887
V61
p1888
sVhttp://dbpedia.org/resource/Mango_(horse)
p1889
V60
p1890
sVhttp://dbpedia.org/resource/Circus_Ring
p1891
V58
p1892
sVhttp://dbpedia.org/resource/Le_Glorieux
p1893
V59
p1894
sVhttp://dbpedia.org/resource/Eunectes
p1895
V38
p1896
sVhttp://dbpedia.org/resource/Hasty_Road
p1897
V58
p1898
sVhttp://dbpedia.org/resource/Doctor_Decherd
p1899
V54
p1900
sVhttp://dbpedia.org/resource/Donau_(horse)
p1901
V55
p1902
sVhttp://dbpedia.org/resource/Belmez_(horse)
p1903
V62
p1904
sVhttp://dbpedia.org/resource/Macho_Again
p1905
V60
p1906
sVhttp://dbpedia.org/resource/Synodontis_nebulosus
p1907
V32
p1908
sVhttp://dbpedia.org/resource/Key_to_the_Moon
p1909
V64
p1910
sVhttp://dbpedia.org/resource/Fanray
p1911
V41
p1912
sVhttp://dbpedia.org/resource/Pharly
p1913
V56
p1914
sVhttp://dbpedia.org/resource/Grey-breasted_mountain_toucan
p1915
V36
p1916
sVhttp://dbpedia.org/resource/Patagonian_forest_earthcreeper
p1917
V26
p1918
sVhttp://dbpedia.org/resource/Legatissimo
p1919
V59
p1920
sVhttp://dbpedia.org/resource/Awesome_Feather
p1921
V60
p1922
sVhttp://dbpedia.org/resource/Mandarinfish
p1923
V53
p1924
sVhttp://dbpedia.org/resource/Sharpen_Up
p1925
V59
p1926
sVhttp://dbpedia.org/resource/Eskendereya
p1927
V61
p1928
sVhttp://dbpedia.org/resource/Lychee
p1929
V65
p1930
sVhttp://dbpedia.org/resource/Bob_Back
p1931
V59
p1932
sVhttp://dbpedia.org/resource/Tom_Rolfe
p1933
V61
p1934
sVhttp://dbpedia.org/resource/Harp_Star
p1935
V60
p1936
sVhttp://dbpedia.org/resource/Big_Brown
p1937
V61
p1938
sVhttp://dbpedia.org/resource/Dance_Number
p1939
V60
p1940
sVhttp://dbpedia.org/resource/Coprinellus_impatiens
p1941
V33
p1942
sVhttp://dbpedia.org/resource/Northern_Dancer
p1943
V66
p1944
sVhttp://dbpedia.org/resource/Papilio_saharae
p1945
V34
p1946
sVhttp://dbpedia.org/resource/Atlantic_mudskipper
p1947
V44
p1948
sVhttp://dbpedia.org/resource/Dancing_Rain
p1949
V60
p1950
sVhttp://dbpedia.org/resource/Blue_Light_(horse)
p1951
V30
p1952
sVhttp://dbpedia.org/resource/Colin_(horse)
p1953
V65
p1954
sVhttp://dbpedia.org/resource/Union_Rags
p1955
V60
p1956
sVhttp://dbpedia.org/resource/Goldfinder_(horse)
p1957
V57
p1958
sVhttp://dbpedia.org/resource/Vateriopsis
p1959
V32
p1960
sVhttp://dbpedia.org/resource/Polytain
p1961
V56
p1962
sVhttp://dbpedia.org/resource/Rizeena
p1963
V60
p1964
sVhttp://dbpedia.org/resource/Rakti
p1965
V61
p1966
sVhttp://dbpedia.org/resource/Emerald_starling
p1967
V34
p1968
sVhttp://dbpedia.org/resource/European_rabbit
p1969
V42
p1970
sVhttp://dbpedia.org/resource/Dr_Fong
p1971
V60
p1972
sVhttp://dbpedia.org/resource/Lord_Lyon_(horse)
p1973
V61
p1974
sVhttp://dbpedia.org/resource/Desert_Prince
p1975
V60
p1976
sVhttp://dbpedia.org/resource/Authorized_(horse)
p1977
V65
p1978
sVhttp://dbpedia.org/resource/Eucalyptus_salmonophloia
p1979
V33
p1980
sVhttp://dbpedia.org/resource/Torgau_(horse)
p1981
V60
p1982
sVhttp://dbpedia.org/resource/Roussalka_(horse)
p1983
V57
p1984
sVhttp://dbpedia.org/resource/Mr._Prospector
p1985
V66
p1986
sVhttp://dbpedia.org/resource/Belardo
p1987
V59
p1988
sVhttp://dbpedia.org/resource/Collier_Bay_(horse)
p1989
V60
p1990
sVhttp://dbpedia.org/resource/Geastrum_welwitschii
p1991
V31
p1992
sVhttp://dbpedia.org/resource/Again_(horse)
p1993
V62
p1994
sVhttp://dbpedia.org/resource/Longboat_(horse)
p1995
V59
p1996
sVhttp://dbpedia.org/resource/Your_Majesty_(horse)
p1997
V60
p1998
sVhttp://dbpedia.org/resource/Pelobates_fuscus
p1999
V45
p2000
sVhttp://dbpedia.org/resource/Raccoon
p2001
V55
p2002
sVhttp://dbpedia.org/resource/Danube_whitefin_gudgeon
p2003
V30
p2004
sVhttp://dbpedia.org/resource/Roystonea_maisiana
p2005
V29
p2006
sVhttp://dbpedia.org/resource/Suillellus_luridus
p2007
V36
p2008
sVhttp://dbpedia.org/resource/Hors_La_Loi_III
p2009
V53
p2010
sVhttp://dbpedia.org/resource/Problem_(horse)
p2011
V58
p2012
sVhttp://dbpedia.org/resource/Rock_On_Ruby
p2013
V62
p2014
sVhttp://dbpedia.org/resource/Dance_in_the_Dark_(horse)
p2015
V62
p2016
sVhttp://dbpedia.org/resource/Big_Zeb
p2017
V58
p2018
sVhttp://dbpedia.org/resource/Bull_Lea
p2019
V63
p2020
sVhttp://dbpedia.org/resource/Leucopholiota_decorosa
p2021
V35
p2022
sVhttp://dbpedia.org/resource/Spend_A_Buck
p2023
V62
p2024
sVhttp://dbpedia.org/resource/Talma_(horse)
p2025
V59
p2026
sVhttp://dbpedia.org/resource/Keen_Pauline
p2027
V58
p2028
sVhttp://dbpedia.org/resource/Majestic_Prince
p2029
V65
p2030
sVhttp://dbpedia.org/resource/Cortinarius_varius
p2031
V32
p2032
sVhttp://dbpedia.org/resource/Millepora_alcicornis
p2033
V31
p2034
sVhttp://dbpedia.org/resource/Danzig_(horse)
p2035
V58
p2036
sVhttp://dbpedia.org/resource/Papaya
p2037
V69
p2038
sVhttp://dbpedia.org/resource/Invincible_Spirit
p2039
V65
p2040
sVhttp://dbpedia.org/resource/Negev_Tortoise
p2041
V42
p2042
sVhttp://dbpedia.org/resource/Synodontis_pardalis
p2043
V32
p2044
sVhttp://dbpedia.org/resource/Mon_Talisman
p2045
V56
p2046
sVhttp://dbpedia.org/resource/Arctic_fox
p2047
V49
p2048
sVhttp://dbpedia.org/resource/Banded_sugar_ant
p2049
V42
p2050
sVhttp://dbpedia.org/resource/Bartail_flathead
p2051
V39
p2052
sVhttp://dbpedia.org/resource/Marling_(horse)
p2053
V59
p2054
sVhttp://dbpedia.org/resource/Leamington_(horse)
p2055
V59
p2056
sVhttp://dbpedia.org/resource/Make_A_Stand_(horse)
p2057
V59
p2058
sVhttp://dbpedia.org/resource/Bryan_G.
p2059
V59
p2060
sVhttp://dbpedia.org/resource/T_M_Opera_O
p2061
V66
p2062
sVhttp://dbpedia.org/resource/Natal_Midlands_dwarf_chameleon
p2063
V35
p2064
sVhttp://dbpedia.org/resource/Bois_Roussel
p2065
V61
p2066
sVhttp://dbpedia.org/resource/Typha_domingensis
p2067
V32
p2068
sVhttp://dbpedia.org/resource/Heroic_(horse)
p2069
V63
p2070
sVhttp://dbpedia.org/resource/Tony_Bin
p2071
V61
p2072
sVhttp://dbpedia.org/resource/Halfway_to_Heaven_(horse)
p2073
V63
p2074
sVhttp://dbpedia.org/resource/Flax
p2075
V66
p2076
sVhttp://dbpedia.org/resource/Domestic_pig
p2077
V56
p2078
sVhttp://dbpedia.org/resource/Meridian_(horse)
p2079
V61
p2080
sVhttp://dbpedia.org/resource/Darshaan
p2081
V61
p2082
sVhttp://dbpedia.org/resource/Melchbourne_(horse)
p2083
V55
p2084
sVhttp://dbpedia.org/resource/Boisea_rubrolineata
p2085
V28
p2086
sVhttp://dbpedia.org/resource/Caro_(horse)
p2087
V60
p2088
sVhttp://dbpedia.org/resource/Sri_Lankan_elephant
p2089
V46
p2090
sVhttp://dbpedia.org/resource/Gangetic_whiting
p2091
V32
p2092
sVhttp://dbpedia.org/resource/Sceptre_(horse)
p2093
V63
p2094
sVhttp://dbpedia.org/resource/Sallust_(horse)
p2095
V61
p2096
sVhttp://dbpedia.org/resource/Spaniel_(horse)
p2097
V60
p2098
sVhttp://dbpedia.org/resource/Styrax_officinalis
p2099
V34
p2100
sVhttp://dbpedia.org/resource/Adelaide_(horse)
p2101
V63
p2102
sVhttp://dbpedia.org/resource/Puku
p2103
V47
p2104
sVhttp://dbpedia.org/resource/Coneygree
p2105
V57
p2106
sVhttp://dbpedia.org/resource/Polistes_erythrocephalus
p2107
V29
p2108
sVhttp://dbpedia.org/resource/Chateaugay_(horse)
p2109
V63
p2110
sVhttp://dbpedia.org/resource/Halothamnus_glaucus
p2111
V28
p2112
sVhttp://dbpedia.org/resource/Paynter_(horse)
p2113
V69
p2114
sVhttp://dbpedia.org/resource/The_Bard_(American_horse)
p2115
V58
p2116
sVhttp://dbpedia.org/resource/Caralluma
p2117
V42
p2118
sVhttp://dbpedia.org/resource/Hygrophorus_eburneus
p2119
V33
p2120
sVhttp://dbpedia.org/resource/Vieux_Manoir
p2121
V30
p2122
sVhttp://dbpedia.org/resource/Kind_(horse)
p2123
V63
p2124
sVhttp://dbpedia.org/resource/Dante_(horse)
p2125
V60
p2126
sVhttp://dbpedia.org/resource/Petingo
p2127
V59
p2128
sVhttp://dbpedia.org/resource/Jerusalem_artichoke
p2129
V82
p2130
sVhttp://dbpedia.org/resource/Bannana_(spider)
p2131
V32
p2132
sVhttp://dbpedia.org/resource/Viola_ucriana
p2133
V37
p2134
sVhttp://dbpedia.org/resource/Moonlight_Cloud
p2135
V64
p2136
sVhttp://dbpedia.org/resource/Walton_(horse)
p2137
V61
p2138
sVhttp://dbpedia.org/resource/Miesque's_Approval
p2139
V59
p2140
sVhttp://dbpedia.org/resource/Declaration_of_War_(horse)
p2141
V62
p2142
sVhttp://dbpedia.org/resource/Caracortado
p2143
V34
p2144
sVhttp://dbpedia.org/resource/Chamossaire_(horse)
p2145
V60
p2146
sVhttp://dbpedia.org/resource/Misremembered
p2147
V30
p2148
sVhttp://dbpedia.org/resource/Sargo
p2149
V44
p2150
sVhttp://dbpedia.org/resource/Canis_lupus_dingo
p2151
V32
p2152
sVhttp://dbpedia.org/resource/Bold_(horse)
p2153
V58
p2154
sVhttp://dbpedia.org/resource/Lactarius_subdulcis
p2155
V32
p2156
sVhttp://dbpedia.org/resource/Russula_albonigra
p2157
V29
p2158
sVhttp://dbpedia.org/resource/Kauto_Star
p2159
V61
p2160
sVhttp://dbpedia.org/resource/Oguri_Cap
p2161
V62
p2162
sVhttp://dbpedia.org/resource/Imperial_Call
p2163
V57
p2164
sVhttp://dbpedia.org/resource/Dauber_(horse)
p2165
V58
p2166
sVhttp://dbpedia.org/resource/Abronia_deppii
p2167
V31
p2168
sVhttp://dbpedia.org/resource/Frederick_(horse)
p2169
V58
p2170
sVhttp://dbpedia.org/resource/Tapinoma_israele
p2171
V30
p2172
sVhttp://dbpedia.org/resource/Umbilicus_intermedius
p2173
V33
p2174
sVhttp://dbpedia.org/resource/Toormore
p2175
V62
p2176
sVhttp://dbpedia.org/resource/Tokai_Teio
p2177
V63
p2178
sVhttp://dbpedia.org/resource/Ta_Wee
p2179
V33
p2180
sVhttp://dbpedia.org/resource/Pichi
p2181
V44
p2182
sVhttp://dbpedia.org/resource/Pteropodinae
p2183
V31
p2184
sVhttp://dbpedia.org/resource/Moringa_oleifera
p2185
V59
p2186
sVhttp://dbpedia.org/resource/Mastercraftsman
p2187
V33
p2188
sVhttp://dbpedia.org/resource/Central_netted_dragon
p2189
V29
p2190
sVhttp://dbpedia.org/resource/Metalegoceras_sundaicum
p2191
V28
p2192
sVhttp://dbpedia.org/resource/Jwala_(horse)
p2193
V56
p2194
sVhttp://dbpedia.org/resource/Ostrich
p2195
V50
p2196
sVhttp://dbpedia.org/resource/Awesome_Gem
p2197
V32
p2198
sVhttp://dbpedia.org/resource/Anvillea
p2199
V33
p2200
sVhttp://dbpedia.org/resource/Market_Wise
p2201
V58
p2202
sVhttp://dbpedia.org/resource/Point_Given
p2203
V64
p2204
sVhttp://dbpedia.org/resource/Macadamia
p2205
V53
p2206
sVhttp://dbpedia.org/resource/Ruler_of_the_World
p2207
V62
p2208
sVhttp://dbpedia.org/resource/Mundig
p2209
V59
p2210
sVhttp://dbpedia.org/resource/Kooyonga
p2211
V60
p2212
sVhttp://dbpedia.org/resource/Leucocoprinus_brebissonii
p2213
V36
p2214
sVhttp://dbpedia.org/resource/Western_yellow_wagtail
p2215
V46
p2216
sVhttp://dbpedia.org/resource/Giant's_Causeway_(horse)
p2217
V65
p2218
sVhttp://dbpedia.org/resource/Round_Island_boa
p2219
V33
p2220
sVhttp://dbpedia.org/resource/Pistachio
p2221
V78
p2222
sVhttp://dbpedia.org/resource/Ksar_(horse)
p2223
V65
p2224
sVhttp://dbpedia.org/resource/Hidden_Treasure
p2225
V63
p2226
sVhttp://dbpedia.org/resource/Asplenium_viride
p2227
V34
p2228
sVhttp://dbpedia.org/resource/Count_Fleet
p2229
V65
p2230
sVhttp://dbpedia.org/resource/High-Rise_(horse)
p2231
V60
p2232
sVhttp://dbpedia.org/resource/Lygodactylus_williamsi
p2233
V36
p2234
sVhttp://dbpedia.org/resource/Calotes_ceylonensis
p2235
V30
p2236
sVhttp://dbpedia.org/resource/Synodontis_annectens
p2237
V32
p2238
sVhttp://dbpedia.org/resource/Sapria_himalayana
p2239
V29
p2240
sVhttp://dbpedia.org/resource/Very_Subtle
p2241
V57
p2242
sVhttp://dbpedia.org/resource/Amanita_virosiformis
p2243
V31
p2244
sVhttp://dbpedia.org/resource/Pteris_vittata
p2245
V35
p2246
sVhttp://dbpedia.org/resource/Dubai_Destination
p2247
V59
p2248
sVhttp://dbpedia.org/resource/Geastrum_quadrifidum
p2249
V36
p2250
sVhttp://dbpedia.org/resource/Barred_thicklip
p2251
V31
p2252
sVhttp://dbpedia.org/resource/Buckskin_(racehorse)
p2253
V59
p2254
sVhttp://dbpedia.org/resource/Sir_Percy
p2255
V64
p2256
sVhttp://dbpedia.org/resource/Right_Boy
p2257
V57
p2258
sVhttp://dbpedia.org/resource/Caressing_(horse)
p2259
V59
p2260
sVhttp://dbpedia.org/resource/Sir_Visto
p2261
V62
p2262
sVhttp://dbpedia.org/resource/Carissa_macrocarpa
p2263
V53
p2264
sVhttp://dbpedia.org/resource/Pseudohemihyalea_sonorosa
p2265
V31
p2266
sVhttp://dbpedia.org/resource/Pasty_(horse)
p2267
V58
p2268
sVhttp://dbpedia.org/resource/Bare-faced_ibis
p2269
V40
p2270
sVhttp://dbpedia.org/resource/Shackleford_(horse)
p2271
V61
p2272
sVhttp://dbpedia.org/resource/Sir_Tristram
p2273
V63
p2274
sVhttp://dbpedia.org/resource/Dr._Freeland
p2275
V57
p2276
sVhttp://dbpedia.org/resource/Deceit_(horse)
p2277
V59
p2278
sVhttp://dbpedia.org/resource/Swift_Temper
p2279
V29
p2280
sVhttp://dbpedia.org/resource/Society_Rock
p2281
V58
p2282
sVhttp://dbpedia.org/resource/Sailor_(horse)
p2283
V59
p2284
sVhttp://dbpedia.org/resource/Handkea_utriformis
p2285
V32
p2286
sVhttp://dbpedia.org/resource/Tapit
p2287
V60
p2288
sVhttp://dbpedia.org/resource/Excellent_Art
p2289
V59
p2290
sVhttp://dbpedia.org/resource/Keen's_myotis
p2291
V26
p2292
sVhttp://dbpedia.org/resource/Eristalinus_taeniops
p2293
V33
p2294
sVhttp://dbpedia.org/resource/Reindeer
p2295
V54
p2296
sVhttp://dbpedia.org/resource/Walnut
p2297
V48
p2298
sVhttp://dbpedia.org/resource/Synodontis_marmoratus
p2299
V34
p2300
sVhttp://dbpedia.org/resource/Unite_(horse)
p2301
V60
p2302
sVhttp://dbpedia.org/resource/Makybe_Diva
p2303
V68
p2304
sVhttp://dbpedia.org/resource/Sendawar_(horse)
p2305
V61
p2306
sVhttp://dbpedia.org/resource/Orfevre
p2307
V66
p2308
sVhttp://dbpedia.org/resource/Snow_Fairy
p2309
V32
p2310
sVhttp://dbpedia.org/resource/Halothamnus_auriculus
p2311
V27
p2312
sVhttp://dbpedia.org/resource/Curlin
p2313
V64
p2314
sVhttp://dbpedia.org/resource/Benny_the_Bull_(horse)
p2315
V60
p2316
sVhttp://dbpedia.org/resource/Mycena_adscendens
p2317
V33
p2318
sVhttp://dbpedia.org/resource/Mejiro_McQueen
p2319
V61
p2320
sVhttp://dbpedia.org/resource/Why_Hurry
p2321
V55
p2322
sVhttp://dbpedia.org/resource/Tontine_(horse)
p2323
V58
p2324
sVhttp://dbpedia.org/resource/Persimmon
p2325
V50
p2326
sVhttp://dbpedia.org/resource/Penelope_(horse)
p2327
V64
p2328
sVhttp://dbpedia.org/resource/Phaseolus_vulgaris
p2329
V63
p2330
sVhttp://dbpedia.org/resource/Aspergillus_sojae
p2331
V32
p2332
sVhttp://dbpedia.org/resource/Vigna_unguiculata_subsp._sesquipedalis
p2333
V49
p2334
sVhttp://dbpedia.org/resource/Xylocopa_augusti
p2335
V29
p2336
sVhttp://dbpedia.org/resource/Micropholis_(amphibian)
p2337
V26
p2338
sVhttp://dbpedia.org/resource/Winged_Love
p2339
V61
p2340
sVhttp://dbpedia.org/resource/Mochokus_niloticus
p2341
V32
p2342
sVhttp://dbpedia.org/resource/Balisada
p2343
V57
p2344
sVhttp://dbpedia.org/resource/Cattle
p2345
V57
p2346
sVhttp://dbpedia.org/resource/Conduit_(horse)
p2347
V62
p2348
sVhttp://dbpedia.org/resource/Elegant_tit
p2349
V31
p2350
sVhttp://dbpedia.org/resource/Coronella_girondica
p2351
V31
p2352
sVhttp://dbpedia.org/resource/Black-crowned_night_heron
p2353
V39
p2354
sVhttp://dbpedia.org/resource/Fossa_(animal)
p2355
V67
p2356
sVhttp://dbpedia.org/resource/Synodontis_thysi
p2357
V32
p2358
sVhttp://dbpedia.org/resource/Peter_Pan_(American_horse)
p2359
V36
p2360
sVhttp://dbpedia.org/resource/Ameerat
p2361
V59
p2362
sVhttp://dbpedia.org/resource/Forward_Pass_(horse)
p2363
V64
p2364
sVhttp://dbpedia.org/resource/Drakensberg_siskin
p2365
V34
p2366
sVhttp://dbpedia.org/resource/Felstead_(horse)
p2367
V60
p2368
sVhttp://dbpedia.org/resource/Argument_(horse)
p2369
V59
p2370
sVhttp://dbpedia.org/resource/Sanglamore
p2371
V59
p2372
sVhttp://dbpedia.org/resource/Sir_Ivor
p2373
V62
p2374
sVhttp://dbpedia.org/resource/Bighorn_sheep
p2375
V54
p2376
sVhttp://dbpedia.org/resource/Fleeting_Spirit
p2377
V59
p2378
sVhttp://dbpedia.org/resource/Celeric
p2379
V60
p2380
sVhttp://dbpedia.org/resource/Fairway_(horse)
p2381
V61
p2382
sVhttp://dbpedia.org/resource/Artful
p2383
V35
p2384
sVhttp://dbpedia.org/resource/Jest_(horse)
p2385
V59
p2386
sVhttp://dbpedia.org/resource/La_Cucaracha_(horse)
p2387
V57
p2388
sVhttp://dbpedia.org/resource/Lobster
p2389
V60
p2390
sVhttp://dbpedia.org/resource/Bally_Ache
p2391
V54
p2392
sVhttp://dbpedia.org/resource/Synodontis_budgetti
p2393
V32
p2394
sVhttp://dbpedia.org/resource/Synodontis_contractus
p2395
V32
p2396
sVhttp://dbpedia.org/resource/Sayyedati
p2397
V60
p2398
sVhttp://dbpedia.org/resource/Sky_Lantern_(horse)
p2399
V58
p2400
sVhttp://dbpedia.org/resource/Crafty_Admiral
p2401
V59
p2402
sVhttp://dbpedia.org/resource/Amazon_weasel
p2403
V46
p2404
sVhttp://dbpedia.org/resource/Arabian_toothcarp
p2405
V34
p2406
sVhttp://dbpedia.org/resource/Un_de_Sceaux
p2407
V55
p2408
sVhttp://dbpedia.org/resource/Frankel_(horse)
p2409
V68
p2410
sVhttp://dbpedia.org/resource/Shardari
p2411
V61
p2412
sVhttp://dbpedia.org/resource/Alsab
p2413
V59
p2414
sVhttp://dbpedia.org/resource/Take_Charge_Brandi
p2415
V61
p2416
sVhttp://dbpedia.org/resource/Aljabr
p2417
V64
p2418
sVhttp://dbpedia.org/resource/Generous_(horse)
p2419
V68
p2420
sVhttp://dbpedia.org/resource/Cuban_crocodile
p2421
V43
p2422
sVhttp://dbpedia.org/resource/Danehill_(horse)
p2423
V64
p2424
sVhttp://dbpedia.org/resource/Animal_Kingdom_(horse)
p2425
V62
p2426
sVhttp://dbpedia.org/resource/Borderlescott
p2427
V56
p2428
sVhttp://dbpedia.org/resource/Psilocybe_subcaerulipes
p2429
V38
p2430
sVhttp://dbpedia.org/resource/Roberto_(horse)
p2431
V60
p2432
sVhttp://dbpedia.org/resource/Agnes_Tachyon
p2433
V63
p2434
sVhttp://dbpedia.org/resource/Mycena_leaiana
p2435
V34
p2436
sVhttp://dbpedia.org/resource/Henrythenavigator
p2437
V62
p2438
sVhttp://dbpedia.org/resource/Determine
p2439
V58
p2440
sVhttp://dbpedia.org/resource/Nasrullah_(horse)
p2441
V61
p2442
sVhttp://dbpedia.org/resource/Petite_Etoile
p2443
V61
p2444
sVhttp://dbpedia.org/resource/Myrmecia_nigriceps
p2445
V36
p2446
sVhttp://dbpedia.org/resource/Klairon_Davis
p2447
V55
p2448
sVhttp://dbpedia.org/resource/Mozart_(horse)
p2449
V64
p2450
sVhttp://dbpedia.org/resource/Hafiz_(horse)
p2451
V61
p2452
sVhttp://dbpedia.org/resource/Castanea_sativa
p2453
V90
p2454
sVhttp://dbpedia.org/resource/Heliopolis_(horse)
p2455
V60
p2456
sVhttp://dbpedia.org/resource/Nearco
p2457
V64
p2458
sVhttp://dbpedia.org/resource/Iris_germanica
p2459
V39
p2460
sVhttp://dbpedia.org/resource/Myrmecia_nigrocincta
p2461
V32
p2462
sVhttp://dbpedia.org/resource/La_Voyageuse
p2463
V34
p2464
sVhttp://dbpedia.org/resource/Further_Flight
p2465
V64
p2466
sVhttp://dbpedia.org/resource/Sophora_tetraptera
p2467
V26
p2468
sVhttp://dbpedia.org/resource/Revidere
p2469
V33
p2470
sVhttp://dbpedia.org/resource/Spelt
p2471
V67
p2472
sVhttp://dbpedia.org/resource/American_Pharoah
p2473
V70
p2474
sVhttp://dbpedia.org/resource/Troy_(horse)
p2475
V66
p2476
sVhttp://dbpedia.org/resource/Northern_Baby
p2477
V61
p2478
sVhttp://dbpedia.org/resource/Malpighia_glabra
p2479
V53
p2480
sVhttp://dbpedia.org/resource/Marasmius_rotula
p2481
V42
p2482
sVhttp://dbpedia.org/resource/Sesame
p2483
V82
p2484
sVhttp://dbpedia.org/resource/Oedipoda
p2485
V34
p2486
sVhttp://dbpedia.org/resource/South_Island_k\u014dkako
p2487
V32
p2488
sVhttp://dbpedia.org/resource/Anabaa_Blue
p2489
V56
p2490
sVhttp://dbpedia.org/resource/Silviniaco_Conti
p2491
V62
p2492
sVhttp://dbpedia.org/resource/Jameson's_mamba
p2493
V43
p2494
sVhttp://dbpedia.org/resource/Synodontis_polyodon
p2495
V32
p2496
sVhttp://dbpedia.org/resource/Bend_Or
p2497
V63
p2498
sVhttp://dbpedia.org/resource/Annie_Power
p2499
V61
p2500
sVhttp://dbpedia.org/resource/Goat
p2501
V49
p2502
sVhttp://dbpedia.org/resource/Shake_The_Yoke
p2503
V58
p2504
sVhttp://dbpedia.org/resource/Wichita_Lineman_(horse)
p2505
V27
p2506
sVhttp://dbpedia.org/resource/Sheikh_Albadou
p2507
V60
p2508
sVhttp://dbpedia.org/resource/Jannette
p2509
V61
p2510
sVhttp://dbpedia.org/resource/Vedette_(horse)
p2511
V59
p2512
sVhttp://dbpedia.org/resource/Podostroma_cornu-damae
p2513
V31
p2514
sVhttp://dbpedia.org/resource/Cirrus_des_Aigles
p2515
V60
p2516
sVhttp://dbpedia.org/resource/So_Factual
p2517
V60
p2518
sVhttp://dbpedia.org/resource/Bateleur
p2519
V43
p2520
sVhttp://dbpedia.org/resource/Geastrum_triplex
p2521
V38
p2522
sVhttp://dbpedia.org/resource/Cystoisospora_belli
p2523
V28
p2524
sVhttp://dbpedia.org/resource/Mung_bean
p2525
V86
p2526
sVhttp://dbpedia.org/resource/Australian_grey_smooth-hound
p2527
V37
p2528
sVhttp://dbpedia.org/resource/Abermaid
p2529
V55
p2530
sVhttp://dbpedia.org/resource/Horlicks_(horse)
p2531
V57
p2532
sVhttp://dbpedia.org/resource/El_Condor_Pasa_(horse)
p2533
V64
p2534
sVhttp://dbpedia.org/resource/African_striped_weasel
p2535
V45
p2536
sVhttp://dbpedia.org/resource/Gay_Crusader
p2537
V62
p2538
sVhttp://dbpedia.org/resource/West_Indian_manatee
p2539
V46
p2540
sVhttp://dbpedia.org/resource/Gamely
p2541
V33
p2542
sVhttp://dbpedia.org/resource/Ansonia_latidisca
p2543
V41
p2544
sVhttp://dbpedia.org/resource/Trip_To_Paris
p2545
V56
p2546
sVhttp://dbpedia.org/resource/Amazon_bamboo_rat
p2547
V26
p2548
sVhttp://dbpedia.org/resource/Lemna_minor
p2549
V34
p2550
sVhttp://dbpedia.org/resource/Young_Eclipse
p2551
V57
p2552
sVhttp://dbpedia.org/resource/Hygrocybe_miniata
p2553
V32
p2554
sVhttp://dbpedia.org/resource/Malacate
p2555
V59
p2556
sVhttp://dbpedia.org/resource/Manna_(horse)
p2557
V57
p2558
sVhttp://dbpedia.org/resource/L'Enjoleur
p2559
V65
p2560
sVhttp://dbpedia.org/resource/Mantidactylus_guttulatus
p2561
V32
p2562
sVhttp://dbpedia.org/resource/Tagalie
p2563
V61
p2564
sVhttp://dbpedia.org/resource/Rock_Sand
p2565
V64
p2566
sVhttp://dbpedia.org/resource/Reams_of_Verse
p2567
V65
p2568
sVhttp://dbpedia.org/resource/Aurochs
p2569
V51
p2570
sVhttp://dbpedia.org/resource/Sulphur-bellied_bulbul
p2571
V31
p2572
sVhttp://dbpedia.org/resource/Cantaloupe
p2573
V60
p2574
sVhttp://dbpedia.org/resource/Black_carpenter_ant
p2575
V35
p2576
sVhttp://dbpedia.org/resource/Euxoa_cursoria
p2577
V30
p2578
sVhttp://dbpedia.org/resource/Pour_Moi
p2579
V63
p2580
sVhttp://dbpedia.org/resource/Myotis_vivesi
p2581
V45
p2582
sVhttp://dbpedia.org/resource/Leucoagaricus_americanus
p2583
V32
p2584
sVhttp://dbpedia.org/resource/Syncarpia_glomulifera
p2585
V38
p2586
sVhttp://dbpedia.org/resource/Dayjur
p2587
V60
p2588
sVhttp://dbpedia.org/resource/Sun_Briar
p2589
V64
p2590
sVhttp://dbpedia.org/resource/Daiwa_Major
p2591
V62
p2592
sVhttp://dbpedia.org/resource/Orchis_anatolica
p2593
V40
p2594
sVhttp://dbpedia.org/resource/Red-backed_paradise_fish
p2595
V35
p2596
sVhttp://dbpedia.org/resource/Alpine_musk_deer
p2597
V38
p2598
sVhttp://dbpedia.org/resource/South_Andean_deer
p2599
V49
p2600
sVhttp://dbpedia.org/resource/Cantharellus_minor
p2601
V31
p2602
sVhttp://dbpedia.org/resource/Northern_whitefin_gudgeon
p2603
V30
p2604
sVhttp://dbpedia.org/resource/Ribot_(horse)
p2605
V65
p2606
sVhttp://dbpedia.org/resource/Coprinopsis_variegata
p2607
V32
p2608
sVhttp://dbpedia.org/resource/Collybia_tuberosa
p2609
V37
p2610
sVhttp://dbpedia.org/resource/European_pilchard
p2611
V36
p2612
sVhttp://dbpedia.org/resource/Suillus_pungens
p2613
V37
p2614
sVhttp://dbpedia.org/resource/Southern_Vietnamese_box_turtle
p2615
V32
p2616
sVhttp://dbpedia.org/resource/The_Minstrel
p2617
V65
p2618
sVhttp://dbpedia.org/resource/Awaasif
p2619
V61
p2620
sVhttp://dbpedia.org/resource/Rhamnus_lycioides
p2621
V35
p2622
sVhttp://dbpedia.org/resource/Aedes_albopictus
p2623
V46
p2624
sVhttp://dbpedia.org/resource/Agnes_Flight
p2625
V62
p2626
sVhttp://dbpedia.org/resource/Lord_Windermere
p2627
V61
p2628
sVhttp://dbpedia.org/resource/Boulenger's_keelback
p2629
V33
p2630
sVhttp://dbpedia.org/resource/Huntingdale_(horse)
p2631
V59
p2632
sVhttp://dbpedia.org/resource/Otiorhynchus_vehemens
p2633
V32
p2634
sVhttp://dbpedia.org/resource/My_Dear_Girl
p2635
V30
p2636
sVhttp://dbpedia.org/resource/Spectrum_(horse)
p2637
V63
p2638
sVhttp://dbpedia.org/resource/Ace_of_Aces_(horse)
p2639
V57
p2640
sVhttp://dbpedia.org/resource/False_scad
p2641
V30
p2642
sVhttp://dbpedia.org/resource/Remittance_Man_(horse)
p2643
V59
p2644
sVhttp://dbpedia.org/resource/Norfolk_golden_whistler
p2645
V30
p2646
sVhttp://dbpedia.org/resource/Human_taxonomy
p2647
V45
p2648
sVhttp://dbpedia.org/resource/Right_Tack
p2649
V53
p2650
sVhttp://dbpedia.org/resource/Amanita_nothofagi
p2651
V36
p2652
sVhttp://dbpedia.org/resource/Parthia_(horse)
p2653
V60
p2654
sVhttp://dbpedia.org/resource/Kala_Dancer
p2655
V60
p2656
sVhttp://dbpedia.org/resource/Beaver
p2657
V50
p2658
sVhttp://dbpedia.org/resource/Chayote
p2659
V54
p2660
sVhttp://dbpedia.org/resource/Paeonia_mascula
p2661
V34
p2662
sVhttp://dbpedia.org/resource/Four-lined_snake
p2663
V41
p2664
sVhttp://dbpedia.org/resource/Payton_d'Oro
p2665
V58
p2666
sVhttp://dbpedia.org/resource/Pachydactylus_vansoni
p2667
V32
p2668
sVhttp://dbpedia.org/resource/Mendez_(horse)
p2669
V59
p2670
sVhttp://dbpedia.org/resource/Silvery-breasted_tanager
p2671
V32
p2672
sVhttp://dbpedia.org/resource/Nassipour
p2673
V63
p2674
sVhttp://dbpedia.org/resource/Sickle_(horse)
p2675
V61
p2676
sVhttp://dbpedia.org/resource/Synodontis_comoensis
p2677
V32
p2678
sVhttp://dbpedia.org/resource/Pelisse_(horse)
p2679
V60
p2680
sVhttp://dbpedia.org/resource/Tudor_Minstrel
p2681
V62
p2682
sVhttp://dbpedia.org/resource/Agnes_World
p2683
V59
p2684
sVhttp://dbpedia.org/resource/Cupressus_glabra
p2685
V36
p2686
sVhttp://dbpedia.org/resource/Tephrocybe_rancida
p2687
V33
p2688
sVhttp://dbpedia.org/resource/Myrobella
p2689
V59
p2690
sVhttp://dbpedia.org/resource/Ragadia_crisilda
p2691
V29
p2692
sVhttp://dbpedia.org/resource/Zilzal_(horse)
p2693
V61
p2694
sVhttp://dbpedia.org/resource/Silverbulletday
p2695
V64
p2696
sVhttp://dbpedia.org/resource/Polynesian_(horse)
p2697
V60
p2698
sVhttp://dbpedia.org/resource/Power_(horse)
p2699
V62
p2700
sVhttp://dbpedia.org/resource/Sunda_clouded_leopard
p2701
V44
p2702
sVhttp://dbpedia.org/resource/Robert_the_Devil_(horse)
p2703
V56
p2704
sVhttp://dbpedia.org/resource/Lesser_gerbil
p2705
V47
p2706
sVhttp://dbpedia.org/resource/Beadsman_(horse)
p2707
V59
p2708
sVhttp://dbpedia.org/resource/Laysan_honeycreeper
p2709
V34
p2710
sVhttp://dbpedia.org/resource/Bahri_(horse)
p2711
V62
p2712
sVhttp://dbpedia.org/resource/Watermelon
p2713
V88
p2714
sVhttp://dbpedia.org/resource/Brave_Inca
p2715
V58
p2716
sVhttp://dbpedia.org/resource/Euchilichthys_royauxi
p2717
V32
p2718
sVhttp://dbpedia.org/resource/High_Top
p2719
V61
p2720
sVhttp://dbpedia.org/resource/Zygoballus_rufipes
p2721
V33
p2722
sVhttp://dbpedia.org/resource/Niniski
p2723
V59
p2724
sVhttp://dbpedia.org/resource/Russula_paludosa
p2725
V35
p2726
sVhttp://dbpedia.org/resource/Lemon_shark
p2727
V49
p2728
sVhttp://dbpedia.org/resource/Launcelot_(horse)
p2729
V59
p2730
sVhttp://dbpedia.org/resource/Kuhl's_pipistrelle
p2731
V42
p2732
sVhttp://dbpedia.org/resource/First_Flight_(horse)
p2733
V60
p2734
sVhttp://dbpedia.org/resource/Sassacus_vitis
p2735
V32
p2736
sVhttp://dbpedia.org/resource/Picture_Play
p2737
V57
p2738
sVhttp://dbpedia.org/resource/Amiable
p2739
V58
p2740
sVhttp://dbpedia.org/resource/Musa_(genus)
p2741
V54
p2742
sVhttp://dbpedia.org/resource/Rock_ptarmigan
p2743
V47
p2744
sVhttp://dbpedia.org/resource/Oil_Capitol
p2745
V29
p2746
sVhttp://dbpedia.org/resource/Silent_Witness_(horse)
p2747
V66
p2748
sVhttp://dbpedia.org/resource/Shavian_(horse)
p2749
V59
p2750
sVhttp://dbpedia.org/resource/Danehill_Dancer
p2751
V65
p2752
sVhttp://dbpedia.org/resource/Longfin_crevalle_jack
p2753
V28
p2754
sVhttp://dbpedia.org/resource/Alfalfa
p2755
V62
p2756
sVhttp://dbpedia.org/resource/Tap_Dance_City
p2757
V59
p2758
sVhttp://dbpedia.org/resource/Glint_of_Gold
p2759
V61
p2760
sVhttp://dbpedia.org/resource/Secretariat_(horse)
p2761
V65
p2762
sVhttp://dbpedia.org/resource/Panellus_stipticus
p2763
V35
p2764
sVhttp://dbpedia.org/resource/Gyrfalcon
p2765
V41
p2766
sVhttp://dbpedia.org/resource/Charter_Party_(horse)
p2767
V54
p2768
sVhttp://dbpedia.org/resource/Rhodocollybia_maculata
p2769
V32
p2770
sVhttp://dbpedia.org/resource/Artaius_(horse)
p2771
V62
p2772
sVhttp://dbpedia.org/resource/Natagora
p2773
V58
p2774
sVhttp://dbpedia.org/resource/Milwaukee_Appeal
p2775
V58
p2776
sVhttp://dbpedia.org/resource/Mukhadram
p2777
V62
p2778
sVhttp://dbpedia.org/resource/Astra_(horse)
p2779
V59
p2780
sVhttp://dbpedia.org/resource/Fair_Salinia
p2781
V58
p2782
sVhttp://dbpedia.org/resource/Windsor_Lad
p2783
V59
p2784
sVhttp://dbpedia.org/resource/Lactarius_vinaceorufescens
p2785
V33
p2786
sVhttp://dbpedia.org/resource/Zenno_Rob_Roy
p2787
V60
p2788
sVhttp://dbpedia.org/resource/Cadeaux_Genereux
p2789
V64
p2790
sVhttp://dbpedia.org/resource/Juglans_nigra
p2791
V77
p2792
sVhttp://dbpedia.org/resource/Lady_Carla
p2793
V61
p2794
sVhttp://dbpedia.org/resource/A.P._Indy
p2795
V66
p2796
sVhttp://dbpedia.org/resource/El_Rio_Rey
p2797
V32
p2798
sVhttp://dbpedia.org/resource/Vernicia_montana
p2799
V26
p2800
sVhttp://dbpedia.org/resource/Primonetta
p2801
V63
p2802
sVhttp://dbpedia.org/resource/Oplurus_cuvieri
p2803
V31
p2804
sVhttp://dbpedia.org/resource/Height_of_Fashion_(horse)
p2805
V61
p2806
sVhttp://dbpedia.org/resource/Reticulated_giraffe
p2807
V44
p2808
sVhttp://dbpedia.org/resource/Pharamond_II
p2809
V62
p2810
sVhttp://dbpedia.org/resource/Amanita_ravenelii
p2811
V37
p2812
sVhttp://dbpedia.org/resource/Synodontis_dekimpei
p2813
V32
p2814
sVhttp://dbpedia.org/resource/Artemisia_herba-alba
p2815
V35
p2816
sVhttp://dbpedia.org/resource/Copera_marginipes
p2817
V29
p2818
sVhttp://dbpedia.org/resource/Fluvanna_(horse)
p2819
V31
p2820
sVhttp://dbpedia.org/resource/Hoist_The_Flag
p2821
V60
p2822
sVhttp://dbpedia.org/resource/Galerina_sulciceps
p2823
V35
p2824
sVhttp://dbpedia.org/resource/Ochina_ptinoides
p2825
V26
p2826
sVhttp://dbpedia.org/resource/Platanthera_blephariglottis
p2827
V34
p2828
sVhttp://dbpedia.org/resource/Bint_Allayl
p2829
V61
p2830
sVhttp://dbpedia.org/resource/Sulaiman_Markhor
p2831
V26
p2832
sVhttp://dbpedia.org/resource/Theatrical_(horse)
p2833
V62
p2834
sVhttp://dbpedia.org/resource/Ravinella
p2835
V59
p2836
sVhttp://dbpedia.org/resource/Oryza_glaberrima
p2837
V36
p2838
sVhttp://dbpedia.org/resource/Synodontis_guttatus
p2839
V32
p2840
sVhttp://dbpedia.org/resource/Airborne_(horse)
p2841
V63
p2842
sVhttp://dbpedia.org/resource/Outstrip
p2843
V59
p2844
sVhttp://dbpedia.org/resource/Virago_(horse)
p2845
V59
p2846
sVhttp://dbpedia.org/resource/Tradescantia_longipes
p2847
V30
p2848
sVhttp://dbpedia.org/resource/Prime_Defender
p2849
V57
p2850
sVhttp://dbpedia.org/resource/Funny_Cide
p2851
V67
p2852
sVhttp://dbpedia.org/resource/Culture_Vulture
p2853
V61
p2854
sVhttp://dbpedia.org/resource/Blucher_(horse)
p2855
V56
p2856
sVhttp://dbpedia.org/resource/Seattle_Song
p2857
V58
p2858
sVhttp://dbpedia.org/resource/Ramruma
p2859
V63
p2860
sVhttp://dbpedia.org/resource/Brief_Truce
p2861
V59
p2862
sVhttp://dbpedia.org/resource/Lupe_(horse)
p2863
V60
p2864
sVhttp://dbpedia.org/resource/Altesse_Royale
p2865
V58
p2866
sVhttp://dbpedia.org/resource/Toulon_(horse)
p2867
V63
p2868
sVhttp://dbpedia.org/resource/Qualify_(horse)
p2869
V56
p2870
sVhttp://dbpedia.org/resource/Tamarisk_(horse)
p2871
V61
p2872
sVhttp://dbpedia.org/resource/Pterocarpus_santalinoides
p2873
V36
p2874
sVhttp://dbpedia.org/resource/Mwanza_flat-headed_rock_agama
p2875
V33
p2876
sVhttp://dbpedia.org/resource/Sir_Archy
p2877
V34
p2878
sVhttp://dbpedia.org/resource/Lonhro
p2879
V60
p2880
sVhttp://dbpedia.org/resource/Nerodia_sipedon_pleuralis
p2881
V31
p2882
sVhttp://dbpedia.org/resource/Stemonurus_apicalis
p2883
V33
p2884
sVhttp://dbpedia.org/resource/Sabirli_(horse)
p2885
V63
p2886
sVhttp://dbpedia.org/resource/Speciosa
p2887
V59
p2888
sVhttp://dbpedia.org/resource/Hickory
p2889
V78
p2890
sVhttp://dbpedia.org/resource/Tmesisternus_politus
p2891
V28
p2892
sVhttp://dbpedia.org/resource/Oribi
p2893
V58
p2894
sVhttp://dbpedia.org/resource/Count_Turf
p2895
V62
p2896
sVhttp://dbpedia.org/resource/Medicean_(horse)
p2897
V64
p2898
sVhttp://dbpedia.org/resource/Denis_of_Cork
p2899
V27
p2900
sVhttp://dbpedia.org/resource/Royal_Delta
p2901
V61
p2902
sVhttp://dbpedia.org/resource/Harbour_(horse)
p2903
V59
p2904
sVhttp://dbpedia.org/resource/Rhus_coriaria
p2905
V34
p2906
sVhttp://dbpedia.org/resource/Astragalus_acmophylloides
p2907
V29
p2908
sVhttp://dbpedia.org/resource/George_Washington_(horse)
p2909
V65
p2910
sVhttp://dbpedia.org/resource/Fasliyev
p2911
V65
p2912
sVhttp://dbpedia.org/resource/Partner_(horse)
p2913
V42
p2914
sVhttp://dbpedia.org/resource/Intermezzo_(horse)
p2915
V58
p2916
sVhttp://dbpedia.org/resource/Winter_Memories
p2917
V58
p2918
sVhttp://dbpedia.org/resource/Darius_(horse)
p2919
V61
p2920
sVhttp://dbpedia.org/resource/Polistes_dorsalis
p2921
V29
p2922
sVhttp://dbpedia.org/resource/Ouija_Board_(horse)
p2923
V68
p2924
sVhttp://dbpedia.org/resource/Negev_shrew
p2925
V35
p2926
sVhttp://dbpedia.org/resource/Cherimoya_(horse)
p2927
V60
p2928
sVhttp://dbpedia.org/resource/Scyliorhinus_meadi
p2929
V31
p2930
sVhttp://dbpedia.org/resource/The_Flying_Dutchman_(horse)
p2931
V60
p2932
sVhttp://dbpedia.org/resource/Seabiscuit
p2933
V66
p2934
sVhttp://dbpedia.org/resource/Goldfish
p2935
V40
p2936
sVhttp://dbpedia.org/resource/Synodontis_velifer
p2937
V32
p2938
sVhttp://dbpedia.org/resource/Persian_War_(horse)
p2939
V60
p2940
sVhttp://dbpedia.org/resource/Biak_gerygone
p2941
V32
p2942
sVhttp://dbpedia.org/resource/Makfi
p2943
V59
p2944
sVhttp://dbpedia.org/resource/Swain_(horse)
p2945
V63
p2946
sVhttp://dbpedia.org/resource/Ditto_(horse)
p2947
V56
p2948
sVhttp://dbpedia.org/resource/Royal_Gait
p2949
V55
p2950
sVhttp://dbpedia.org/resource/Melanthera_biflora
p2951
V30
p2952
sVhttp://dbpedia.org/resource/Banshee_Breeze
p2953
V61
p2954
sVhttp://dbpedia.org/resource/Exclusive_Native
p2955
V34
p2956
sVhttp://dbpedia.org/resource/Potamon_ibericum
p2957
V33
p2958
sVhttp://dbpedia.org/resource/Bristle-faced_free-tailed_bat
p2959
V30
p2960
sVhttp://dbpedia.org/resource/Sheriff's_Star
p2961
V58
p2962
sVhttp://dbpedia.org/resource/Nobiliary
p2963
V60
p2964
sVhttp://dbpedia.org/resource/Mucho_Macho_Man
p2965
V70
p2966
sVhttp://dbpedia.org/resource/Gentildonna
p2967
V61
p2968
sVhttp://dbpedia.org/resource/Baldric_(horse)
p2969
V60
p2970
sVhttp://dbpedia.org/resource/Leonatus
p2971
V32
p2972
sVhttp://dbpedia.org/resource/Cape_Cross_(horse)
p2973
V59
p2974
sVhttp://dbpedia.org/resource/Tap_On_Wood
p2975
V58
p2976
sVhttp://dbpedia.org/resource/Pebbles_(horse)
p2977
V62
p2978
sVhttp://dbpedia.org/resource/Humorist_(horse)
p2979
V61
p2980
sVhttp://dbpedia.org/resource/Quercus_delgadoana
p2981
V29
p2982
sVhttp://dbpedia.org/resource/Polybia_occidentalis
p2983
V29
p2984
sVhttp://dbpedia.org/resource/Fleet_Indian
p2985
V27
p2986
sVhttp://dbpedia.org/resource/Rail_Link_(horse)
p2987
V60
p2988
sVhttp://dbpedia.org/resource/Turnip
p2989
V64
p2990
sVhttp://dbpedia.org/resource/Boletus_edulis
p2991
V59
p2992
sVhttp://dbpedia.org/resource/Haiseiko
p2993
V58
p2994
sVhttp://dbpedia.org/resource/Plumeria_rubra
p2995
V39
p2996
sVhttp://dbpedia.org/resource/Peale's_free-tailed_bat
p2997
V26
p2998
sVhttp://dbpedia.org/resource/Thatch_(horse)
p2999
V61
p3000
sVhttp://dbpedia.org/resource/Agaricus_dulcidulus
p3001
V31
p3002
sVhttp://dbpedia.org/resource/Rose_Bowl_(horse)
p3003
V58
p3004
sVhttp://dbpedia.org/resource/Abd_al-Kuri_sparrow
p3005
V31
p3006
sVhttp://dbpedia.org/resource/Tulyar
p3007
V64
p3008
sVhttp://dbpedia.org/resource/Stevia_(genus)
p3009
V38
p3010
sVhttp://dbpedia.org/resource/Sarah's_Secret
p3011
V55
p3012
sVhttp://dbpedia.org/resource/On_Trust
p3013
V58
p3014
sVhttp://dbpedia.org/resource/Pseudophilautus_stellatus
p3015
V37
p3016
sVhttp://dbpedia.org/resource/Rotheca
p3017
V26
p3018
sVhttp://dbpedia.org/resource/Prunus_sibirica
p3019
V28
p3020
sVhttp://dbpedia.org/resource/Killer_whale
p3021
V62
p3022
sVhttp://dbpedia.org/resource/Seattle_Slew
p3023
V67
p3024
sVhttp://dbpedia.org/resource/Schreiber's_fringe-fingered_lizard
p3025
V42
p3026
sVhttp://dbpedia.org/resource/Dahlia_(horse)
p3027
V62
p3028
sVhttp://dbpedia.org/resource/Dunette
p3029
V55
p3030
sVhttp://dbpedia.org/resource/Favonius_(horse)
p3031
V58
p3032
sVhttp://dbpedia.org/resource/Work_All_Week
p3033
V58
p3034
sVhttp://dbpedia.org/resource/Lahan_(horse)
p3035
V63
p3036
sVhttp://dbpedia.org/resource/Ebaziya
p3037
V59
p3038
sVhttp://dbpedia.org/resource/Danio_margaritatus
p3039
V34
p3040
sVhttp://dbpedia.org/resource/Olden_Times
p3041
V59
p3042
sVhttp://dbpedia.org/resource/Small_ground_finch
p3043
V39
p3044
sVhttp://dbpedia.org/resource/Voracious_shrew
p3045
V27
p3046
sVhttp://dbpedia.org/resource/California_Chrome
p3047
V83
p3048
sVhttp://dbpedia.org/resource/Oh_So_Sharp
p3049
V66
p3050
sVhttp://dbpedia.org/resource/Sizing_Europe
p3051
V60
p3052
sVhttp://dbpedia.org/resource/Nashua_(horse)
p3053
V66
p3054
sVhttp://dbpedia.org/resource/Sarcopoterium
p3055
V38
p3056
sVhttp://dbpedia.org/resource/Medora_(horse)
p3057
V59
p3058
sVhttp://dbpedia.org/resource/Laver_(seaweed)
p3059
V54
p3060
sVhttp://dbpedia.org/resource/Western_gulper_shark
p3061
V29
p3062
sVhttp://dbpedia.org/resource/Terre-de-Haut_racer
p3063
V33
p3064
sVhttp://dbpedia.org/resource/Siberian_sturgeon
p3065
V50
p3066
sVhttp://dbpedia.org/resource/Hypsiglena_unaocularis
p3067
V37
p3068
sVhttp://dbpedia.org/resource/Success_Express
p3069
V60
p3070
sVhttp://dbpedia.org/resource/Tulloch_(horse)
p3071
V61
p3072
sVhttp://dbpedia.org/resource/Mark_of_Esteem
p3073
V58
p3074
sVhttp://dbpedia.org/resource/Prestige_(horse)
p3075
V58
p3076
sVhttp://dbpedia.org/resource/John_Henry_(horse)
p3077
V66
p3078
sVhttp://dbpedia.org/resource/Pretender_(horse)
p3079
V57
p3080
sVhttp://dbpedia.org/resource/Synodontis_congicus
p3081
V33
p3082
sVhttp://dbpedia.org/resource/Salsabil_(horse)
p3083
V65
p3084
sVhttp://dbpedia.org/resource/Balkan-Anatolian_crested_newt
p3085
V29
p3086
sVhttp://dbpedia.org/resource/Forest_Flower_(horse)
p3087
V61
p3088
sVhttp://dbpedia.org/resource/Pliohippus
p3089
V32
p3090
sVhttp://dbpedia.org/resource/Life_Is_Sweet_(horse)
p3091
V62
p3092
sVhttp://dbpedia.org/resource/Fallen_For_You_(horse)
p3093
V59
p3094
sVhttp://dbpedia.org/resource/Eastern_Garter_Snake
p3095
V30
p3096
sVhttp://dbpedia.org/resource/Mandarin_rat_snake
p3097
V32
p3098
sVhttp://dbpedia.org/resource/Party_Politics_(horse)
p3099
V54
p3100
sVhttp://dbpedia.org/resource/Choanomphalus_maacki
p3101
V30
p3102
sVhttp://dbpedia.org/resource/Big_Game_(horse)
p3103
V62
p3104
sVhttp://dbpedia.org/resource/Cantharellus_lateritius
p3105
V35
p3106
sVhttp://dbpedia.org/resource/Recitation_(horse)
p3107
V57
p3108
sVhttp://dbpedia.org/resource/Bosc's_fringe-toed_lizard
p3109
V38
p3110
sVhttp://dbpedia.org/resource/Royal_Palace_(horse)
p3111
V62
p3112
sVhttp://dbpedia.org/resource/Monito_del_monte
p3113
V55
p3114
sVhttp://dbpedia.org/resource/Norfolk_Pacific_robin
p3115
V30
p3116
sVhttp://dbpedia.org/resource/Synodontis_arnoulti
p3117
V32
p3118
sVhttp://dbpedia.org/resource/Melton_(horse)
p3119
V60
p3120
sVhttp://dbpedia.org/resource/Chestnut-mandibled_toucan
p3121
V47
p3122
sVhttp://dbpedia.org/resource/Arazi_(horse)
p3123
V64
p3124
sVhttp://dbpedia.org/resource/Scincella_gemmingeri
p3125
V35
p3126
sVhttp://dbpedia.org/resource/Inocybe_cookei
p3127
V37
p3128
sVhttp://dbpedia.org/resource/Peringuey's_leaf-toed_gecko
p3129
V31
p3130
sVhttp://dbpedia.org/resource/Quercus_ithaburensis
p3131
V33
p3132
sVhttp://dbpedia.org/resource/Synodontis_batesii
p3133
V32
p3134
sVhttp://dbpedia.org/resource/Pelophylax_lateralis
p3135
V35
p3136
sVhttp://dbpedia.org/resource/Tropidolaemus_subannulatus
p3137
V27
p3138
sVhttp://dbpedia.org/resource/Ganoderma_curtisii
p3139
V32
p3140
sVhttp://dbpedia.org/resource/Synodontis_vanderwaali
p3141
V32
p3142
sVhttp://dbpedia.org/resource/American_black_bear
p3143
V62
p3144
sVhttp://dbpedia.org/resource/Kabobo_apalis
p3145
V33
p3146
sVhttp://dbpedia.org/resource/St._Blaise_(horse)
p3147
V61
p3148
sVhttp://dbpedia.org/resource/Forego
p3149
V64
p3150
sVhttp://dbpedia.org/resource/Spectacled_porpoise
p3151
V47
p3152
sVhttp://dbpedia.org/resource/Psilocybe_serbica
p3153
V32
p3154
sVhttp://dbpedia.org/resource/Coconut_crab
p3155
V54
p3156
sVhttp://dbpedia.org/resource/King's_Theatre_(horse)
p3157
V65
p3158
sVhttp://dbpedia.org/resource/Ask_(horse)
p3159
V59
p3160
sVhttp://dbpedia.org/resource/Cycas_rumphii
p3161
V33
p3162
sVhttp://dbpedia.org/resource/Tylopilus_plumbeoviolaceus
p3163
V38
p3164
sVhttp://dbpedia.org/resource/Drosselmeyer
p3165
V64
p3166
sVhttp://dbpedia.org/resource/Chilabothrus_angulifer
p3167
V46
p3168
sVhttp://dbpedia.org/resource/Emilius_(horse)
p3169
V59
p3170
sVhttp://dbpedia.org/resource/All_Along
p3171
V63
p3172
sVhttp://dbpedia.org/resource/Blueberry
p3173
V53
p3174
sVhttp://dbpedia.org/resource/Neotinea_maculata
p3175
V36
p3176
sVhttp://dbpedia.org/resource/Byword_(horse)
p3177
V61
p3178
sVhttp://dbpedia.org/resource/Cystolepiota_bucknallii
p3179
V32
p3180
sVhttp://dbpedia.org/resource/Musket_(horse)
p3181
V56
p3182
sVhttp://dbpedia.org/resource/Snap_pea
p3183
V68
p3184
sVhttp://dbpedia.org/resource/Song_thrush
p3185
V54
p3186
sVhttp://dbpedia.org/resource/Ali-Royal
p3187
V59
p3188
sVhttp://dbpedia.org/resource/Never_Say_Die_(horse)
p3189
V60
p3190
sVhttp://dbpedia.org/resource/Amsonia_orientalis
p3191
V30
p3192
sVhttp://dbpedia.org/resource/Broomstick_(horse)
p3193
V34
p3194
sVhttp://dbpedia.org/resource/Cherry_barb
p3195
V27
p3196
sVhttp://dbpedia.org/resource/Tetratema
p3197
V64
p3198
sVhttp://dbpedia.org/resource/Cassava
p3199
V69
p3200
sVhttp://dbpedia.org/resource/Tigon
p3201
V35
p3202
sVhttp://dbpedia.org/resource/Hard_Ridden
p3203
V60
p3204
sVhttp://dbpedia.org/resource/Memnon_(horse)
p3205
V61
p3206
sVhttp://dbpedia.org/resource/Goldencents
p3207
V59
p3208
sVhttp://dbpedia.org/resource/Alleged_(horse)
p3209
V63
p3210
sVhttp://dbpedia.org/resource/High_Quest
p3211
V61
p3212
sVhttp://dbpedia.org/resource/Remember_Rose
p3213
V33
p3214
sVhttp://dbpedia.org/resource/Rowena_(horse)
p3215
V58
p3216
sVhttp://dbpedia.org/resource/Rachel_Alexandra
p3217
V63
p3218
sVhttp://dbpedia.org/resource/Polymelus
p3219
V32
p3220
sVhttp://dbpedia.org/resource/Large_ground_finch
p3221
V36
p3222
sVhttp://dbpedia.org/resource/Ruyangosaurus
p3223
V36
p3224
sVhttp://dbpedia.org/resource/Committed_(horse)
p3225
V60
p3226
sVhttp://dbpedia.org/resource/Sir_Barton
p3227
V66
p3228
sVhttp://dbpedia.org/resource/Solen_marginatus
p3229
V35
p3230
sVhttp://dbpedia.org/resource/St._Giles_(horse)
p3231
V58
p3232
sVhttp://dbpedia.org/resource/Theretra_alecto
p3233
V33
p3234
sVhttp://dbpedia.org/resource/Tilapia_busumana
p3235
V33
p3236
sVhttp://dbpedia.org/resource/Charlottesville_(horse)
p3237
V59
p3238
sVhttp://dbpedia.org/resource/Hordeum_spontaneum
p3239
V34
p3240
sVhttp://dbpedia.org/resource/Sagamix
p3241
V62
p3242
sVhttp://dbpedia.org/resource/Atropoides_nummifer_mexicanus
p3243
V32
p3244
sVhttp://dbpedia.org/resource/Full_Dress
p3245
V58
p3246
sVhttp://dbpedia.org/resource/Hycilla
p3247
V57
p3248
sVhttp://dbpedia.org/resource/Anzum
p3249
V57
p3250
sVhttp://dbpedia.org/resource/Wollow
p3251
V55
p3252
sVhttp://dbpedia.org/resource/Moonshell_(horse)
p3253
V63
p3254
sVhttp://dbpedia.org/resource/Kings_Lake_(horse)
p3255
V58
p3256
sVhttp://dbpedia.org/resource/Snow_leopard
p3257
V62
p3258
sVhttp://dbpedia.org/resource/Northern_Rocky_Mountains_wolf
p3259
V35
p3260
sVhttp://dbpedia.org/resource/Greater_prairie_chicken
p3261
V48
p3262
sVhttp://dbpedia.org/resource/Common_Suriname_toad
p3263
V33
p3264
sVhttp://dbpedia.org/resource/Magnificent_frigatebird
p3265
V39
p3266
sVhttp://dbpedia.org/resource/Grey_Classic
p3267
V32
p3268
sVhttp://dbpedia.org/resource/Zafeen
p3269
V57
p3270
sVhttp://dbpedia.org/resource/Synodontis_schoutedeni
p3271
V32
p3272
sVhttp://dbpedia.org/resource/Pappa_Fourway
p3273
V58
p3274
sVhttp://dbpedia.org/resource/Pear
p3275
V85
p3276
sVhttp://dbpedia.org/resource/Black_rhinoceros
p3277
V61
p3278
sVhttp://dbpedia.org/resource/My_Love_(horse)
p3279
V58
p3280
sVhttp://dbpedia.org/resource/Colonial_Affair
p3281
V59
p3282
sVhttp://dbpedia.org/resource/Ventura_(horse)
p3283
V29
p3284
sVhttp://dbpedia.org/resource/Lampranthus_tenuifolius
p3285
V28
p3286
sVhttp://dbpedia.org/resource/Agaricus_bisporus
p3287
V65
p3288
sVhttp://dbpedia.org/resource/Key_Largo_cotton_mouse
p3289
V26
p3290
sVhttp://dbpedia.org/resource/Onager
p3291
V52
p3292
sVhttp://dbpedia.org/resource/Boletus_regineus
p3293
V30
p3294
sVhttp://dbpedia.org/resource/Mtoto
p3295
V62
p3296
sVhttp://dbpedia.org/resource/Snow_Chief
p3297
V57
p3298
sVhttp://dbpedia.org/resource/Parisot_(horse)
p3299
V56
p3300
sVhttp://dbpedia.org/resource/Acting_Happy
p3301
V59
p3302
sVhttp://dbpedia.org/resource/Psilocybe_hoogshagenii
p3303
V32
p3304
sVhttp://dbpedia.org/resource/Dancing_Brave
p3305
V63
p3306
sVhttp://dbpedia.org/resource/Asplenium_montanum
p3307
V33
p3308
sVhttp://dbpedia.org/resource/Silverfish
p3309
V40
p3310
sVhttp://dbpedia.org/resource/Owen_Tudor_(horse)
p3311
V59
p3312
sVhttp://dbpedia.org/resource/Mycena_inclinata
p3313
V32
p3314
sVhttp://dbpedia.org/resource/Shining-green_hummingbird
p3315
V27
p3316
sVhttp://dbpedia.org/resource/Theia_(horse)
p3317
V57
p3318
sVhttp://dbpedia.org/resource/Fibigia
p3319
V35
p3320
sVhttp://dbpedia.org/resource/Hieracium_hieronymi
p3321
V33
p3322
sVhttp://dbpedia.org/resource/Uptowncharlybrown
p3323
V56
p3324
sVhttp://dbpedia.org/resource/Vintage_Crop
p3325
V69
p3326
sVhttp://dbpedia.org/resource/Symplecta
p3327
V30
p3328
sVhttp://dbpedia.org/resource/Caper
p3329
V50
p3330
sVhttp://dbpedia.org/resource/Macs_Joy
p3331
V56
p3332
sVhttp://dbpedia.org/resource/Hephestion_(horse)
p3333
V57
p3334
sVhttp://dbpedia.org/resource/So_You_Think
p3335
V64
p3336
sVhttp://dbpedia.org/resource/Dundeel
p3337
V63
p3338
sVhttp://dbpedia.org/resource/Jodami
p3339
V56
p3340
sVhttp://dbpedia.org/resource/Cucurbita
p3341
V51
p3342
sVhttp://dbpedia.org/resource/Jet_Ski_Lady
p3343
V62
p3344
sVhttp://dbpedia.org/resource/Peppermint_angelfish
p3345
V27
p3346
sVhttp://dbpedia.org/resource/George_Frederick_(horse)
p3347
V59
p3348
sVhttp://dbpedia.org/resource/Saritamer
p3349
V55
p3350
sVhttp://dbpedia.org/resource/Kalamoun
p3351
V59
p3352
sVhttp://dbpedia.org/resource/Nayef_(horse)
p3353
V64
p3354
sVhttp://dbpedia.org/resource/Kendal_(horse)
p3355
V65
p3356
sVhttp://dbpedia.org/resource/Paris_(horse)
p3357
V57
p3358
sVhttp://dbpedia.org/resource/Tibetan_macaque
p3359
V42
p3360
sVhttp://dbpedia.org/resource/Cortinarius_vanduzerensis
p3361
V37
p3362
sVhttp://dbpedia.org/resource/Pope_(horse)
p3363
V59
p3364
sVhttp://dbpedia.org/resource/Opening_Verse
p3365
V61
p3366
sVhttp://dbpedia.org/resource/Nemesia_(plant)
p3367
V36
p3368
sVhttp://dbpedia.org/resource/Thatching_(horse)
p3369
V59
p3370
sVhttp://dbpedia.org/resource/St._Amant_(horse)
p3371
V61
p3372
sVhttp://dbpedia.org/resource/Don_whitefin_gudgeon
p3373
V30
p3374
sVhttp://dbpedia.org/resource/Preserve_(horse)
p3375
V59
p3376
sVhttp://dbpedia.org/resource/Rags_to_Riches_(horse)
p3377
V65
p3378
sVhttp://dbpedia.org/resource/Sarah_Siddons_(horse)
p3379
V57
p3380
sVhttp://dbpedia.org/resource/Whalebone_(horse)
p3381
V63
p3382
sVhttp://dbpedia.org/resource/Seabreeze_(horse)
p3383
V59
p3384
sVhttp://dbpedia.org/resource/Rubus_ulmifolius_subsp._sanctus
p3385
V39
p3386
sVhttp://dbpedia.org/resource/Miss_Alleged
p3387
V60
p3388
sVhttp://dbpedia.org/resource/Isonomy_(horse)
p3389
V62
p3390
sVhttp://dbpedia.org/resource/Urban_Sea
p3391
V64
p3392
sVhttp://dbpedia.org/resource/Dibidale
p3393
V59
p3394
sVhttp://dbpedia.org/resource/Canadian_Champ
p3395
V33
p3396
sVhttp://dbpedia.org/resource/First_Trump
p3397
V61
p3398
sVhttp://dbpedia.org/resource/Whirlaway
p3399
V65
p3400
sVhttp://dbpedia.org/resource/Pseudohemihyalea_syracosia
p3401
V32
p3402
sVhttp://dbpedia.org/resource/Unfuwain
p3403
V65
p3404
sVhttp://dbpedia.org/resource/Stacelita
p3405
V60
p3406
sVhttp://dbpedia.org/resource/French_Holly
p3407
V58
p3408
sVhttp://dbpedia.org/resource/Orme_(horse)
p3409
V66
p3410
sVhttp://dbpedia.org/resource/Tirol_(horse)
p3411
V58
p3412
sVhttp://dbpedia.org/resource/Clathrus_columnatus
p3413
V35
p3414
sVhttp://dbpedia.org/resource/Opera_House_(horse)
p3415
V64
p3416
sVhttp://dbpedia.org/resource/Zambiasaurus
p3417
V26
p3418
sVhttp://dbpedia.org/resource/Arctic_Prince
p3419
V61
p3420
sVhttp://dbpedia.org/resource/Cherry_Lass
p3421
V62
p3422
sVhttp://dbpedia.org/resource/Rhadamanthus_(horse)
p3423
V56
p3424
sVhttp://dbpedia.org/resource/Thormanby_(horse)
p3425
V60
p3426
sVhttp://dbpedia.org/resource/Lillie_Langtry_(horse)
p3427
V58
p3428
sVhttp://dbpedia.org/resource/John_F_Kennedy_(horse)
p3429
V64
p3430
sVhttp://dbpedia.org/resource/Bibio_pomonae
p3431
V30
p3432
sVhttp://dbpedia.org/resource/Megalodon
p3433
V49
p3434
sVhttp://dbpedia.org/resource/Habibti
p3435
V59
p3436
sVhttp://dbpedia.org/resource/Rambutan
p3437
V73
p3438
sVhttp://dbpedia.org/resource/Oriental_pied_hornbill
p3439
V37
p3440
sVhttp://dbpedia.org/resource/Relkino
p3441
V59
p3442
sVhttp://dbpedia.org/resource/Giant_mole_shrew
p3443
V26
p3444
sVhttp://dbpedia.org/resource/Morchella_rufobrunnea
p3445
V34
p3446
sVhttp://dbpedia.org/resource/Miss_Oceana
p3447
V62
p3448
sVhttp://dbpedia.org/resource/True_North_I
p3449
V59
p3450
sVhttp://dbpedia.org/resource/Avenir_Certain
p3451
V58
p3452
sVhttp://dbpedia.org/resource/Petrarch_(horse)
p3453
V60
p3454
sVhttp://dbpedia.org/resource/Sir_Peter_Teazle
p3455
V60
p3456
sVhttp://dbpedia.org/resource/Highflyer_(horse)
p3457
V59
p3458
sVhttp://dbpedia.org/resource/English_Prince
p3459
V59
p3460
sVhttp://dbpedia.org/resource/Louis_Quatorze_(horse)
p3461
V57
p3462
sVhttp://dbpedia.org/resource/Syrian_wild_ass
p3463
V52
p3464
sVhttp://dbpedia.org/resource/Volvariella_bombycina
p3465
V37
p3466
sVhttp://dbpedia.org/resource/Muskmelon
p3467
V41
p3468
sVhttp://dbpedia.org/resource/Ribocco
p3469
V59
p3470
sVhttp://dbpedia.org/resource/Paean_(horse)
p3471
V60
p3472
sVhttp://dbpedia.org/resource/Synodontis_nigromaculatus
p3473
V33
p3474
sVhttp://dbpedia.org/resource/Affectionately
p3475
V63
p3476
sVhttp://dbpedia.org/resource/Darwin's_rhea
p3477
V50
p3478
sVhttp://dbpedia.org/resource/Aunt_Edith
p3479
V57
p3480
sVhttp://dbpedia.org/resource/Fallow_deer
p3481
V47
p3482
sVhttp://dbpedia.org/resource/Black_fat\u2013tailed_scorpion
p3483
V33
p3484
sVhttp://dbpedia.org/resource/Parus
p3485
V36
p3486
sVhttp://dbpedia.org/resource/Southern_Maid_(horse)
p3487
V60
p3488
sVhttp://dbpedia.org/resource/Native_Dancer
p3489
V64
p3490
sVhttp://dbpedia.org/resource/Princequillo
p3491
V63
p3492
sVhttp://dbpedia.org/resource/Election_(horse)
p3493
V56
p3494
sVhttp://dbpedia.org/resource/Nureyev_(horse)
p3495
V61
p3496
sVhttp://dbpedia.org/resource/Crotalus_oreganus_caliginis
p3497
V35
p3498
sVhttp://dbpedia.org/resource/Ard_Patrick
p3499
V64
p3500
sVhttp://dbpedia.org/resource/Lonesome_Glory
p3501
V59
p3502
sVhttp://dbpedia.org/resource/Lemon
p3503
V77
p3504
sVhttp://dbpedia.org/resource/Sixties_Icon
p3505
V60
p3506
sVhttp://dbpedia.org/resource/Mantidactylus_lugubris
p3507
V32
p3508
sVhttp://dbpedia.org/resource/Shirley_Heights_(horse)
p3509
V64
p3510
sVhttp://dbpedia.org/resource/Procambarus_zonangulus
p3511
V32
p3512
sVhttp://dbpedia.org/resource/Virginia_Waters
p3513
V59
p3514
sVhttp://dbpedia.org/resource/Sarcoscypha_austriaca
p3515
V31
p3516
sVhttp://dbpedia.org/resource/Cameronian_(horse)
p3517
V62
p3518
sVhttp://dbpedia.org/resource/Elocutionist_(horse)
p3519
V58
p3520
sVhttp://dbpedia.org/resource/Tanerko
p3521
V60
p3522
sVhttp://dbpedia.org/resource/Barton_(horse)
p3523
V57
p3524
sVhttp://dbpedia.org/resource/Hurricane_Run
p3525
V65
p3526
sVhttp://dbpedia.org/resource/Panaeolus_papilionaceus_var._parvisporus
p3527
V32
p3528
sVhttp://dbpedia.org/resource/Red_Clubs
p3529
V60
p3530
sVhttp://dbpedia.org/resource/Holding_Court_(horse)
p3531
V57
p3532
sVhttp://dbpedia.org/resource/Crotalus_molossus_estebanensis
p3533
V35
p3534
sVhttp://dbpedia.org/resource/Many-scaled_cylindrical_skink
p3535
V26
p3536
sVhttp://dbpedia.org/resource/Astragalus_atenicus
p3537
V29
p3538
sVhttp://dbpedia.org/resource/Jerry_(St_Leger_winner)
p3539
V59
p3540
sVhttp://dbpedia.org/resource/Minoru_(horse)
p3541
V64
p3542
sVhttp://dbpedia.org/resource/Stay_Gold_(horse)
p3543
V62
p3544
sVhttp://dbpedia.org/resource/Badsworth_Boy
p3545
V59
p3546
sVhttp://dbpedia.org/resource/Synodontis_bastiani
p3547
V32
p3548
sVhttp://dbpedia.org/resource/Shahrastani
p3549
V66
p3550
sVhttp://dbpedia.org/resource/Black-headed_ground_snake
p3551
V44
p3552
sVhttp://dbpedia.org/resource/Duramente
p3553
V58
p3554
sVhttp://dbpedia.org/resource/Rock_bush_quail
p3555
V42
p3556
sVhttp://dbpedia.org/resource/Cumin
p3557
V73
p3558
sVhttp://dbpedia.org/resource/Beautiful_Pleasure
p3559
V59
p3560
sVhttp://dbpedia.org/resource/Kaua\u02bbi_nukupu\u02bbu
p3561
V33
p3562
sVhttp://dbpedia.org/resource/Morley_Street
p3563
V59
p3564
sVhttp://dbpedia.org/resource/Eole_(horse)
p3565
V59
p3566
sVhttp://dbpedia.org/resource/Red_fox
p3567
V49
p3568
sVhttp://dbpedia.org/resource/King's_Best
p3569
V59
p3570
sVhttp://dbpedia.org/resource/South_African_cheetah
p3571
V29
p3572
sVhttp://dbpedia.org/resource/Shangamuzo
p3573
V59
p3574
sVhttp://dbpedia.org/resource/Park_Appeal
p3575
V58
p3576
sVhttp://dbpedia.org/resource/Blame_(horse)
p3577
V33
p3578
sVhttp://dbpedia.org/resource/Northjet
p3579
V59
p3580
sVhttp://dbpedia.org/resource/Guianan_toucanet
p3581
V38
p3582
sVhttp://dbpedia.org/resource/Bostonian_(horse)
p3583
V60
p3584
sVhttp://dbpedia.org/resource/Orby_(horse)
p3585
V60
p3586
sVhttp://dbpedia.org/resource/Green_iguana
p3587
V39
p3588
sVhttp://dbpedia.org/resource/Zanthoxylum_piperitum
p3589
V31
p3590
sVhttp://dbpedia.org/resource/The_Thinker_(horse)
p3591
V52
p3592
sVhttp://dbpedia.org/resource/Colombo_(horse)
p3593
V58
p3594
sVhttp://dbpedia.org/resource/Snurge
p3595
V60
p3596
sVhttp://dbpedia.org/resource/Tiger_shark
p3597
V54
p3598
sVhttp://dbpedia.org/resource/Dwarf_crocodile
p3599
V46
p3600
sVhttp://dbpedia.org/resource/Sheilas_Reward
p3601
V58
p3602
sVhttp://dbpedia.org/resource/Grey_junglefowl
p3603
V46
p3604
sVhttp://dbpedia.org/resource/Nebbiolo_(horse)
p3605
V57
p3606
sVhttp://dbpedia.org/resource/Pommern_(horse)
p3607
V62
p3608
sVhttp://dbpedia.org/resource/Postponed
p3609
V58
p3610
sVhttp://dbpedia.org/resource/Lepiota_aspera
p3611
V34
p3612
sVhttp://dbpedia.org/resource/Ragmar
p3613
V54
p3614
sVhttp://dbpedia.org/resource/Galata_(horse)
p3615
V59
p3616
sVhttp://dbpedia.org/resource/Synodontis_tourei
p3617
V32
p3618
sVhttp://dbpedia.org/resource/Epitome_(horse)
p3619
V57
p3620
sVhttp://dbpedia.org/resource/Kelso_(horse)
p3621
V62
p3622
sVhttp://dbpedia.org/resource/Tuber_oregonense
p3623
V34
p3624
sVhttp://dbpedia.org/resource/Olympic_Glory
p3625
V63
p3626
sVhttp://dbpedia.org/resource/Garden_warbler
p3627
V47
p3628
sVhttp://dbpedia.org/resource/Blue_Bunting_(horse)
p3629
V62
p3630
sVhttp://dbpedia.org/resource/Drumtop
p3631
V61
p3632
sVhttp://dbpedia.org/resource/Sunline
p3633
V62
p3634
sVhttp://dbpedia.org/resource/Touchstone_(horse)
p3635
V63
p3636
sVhttp://dbpedia.org/resource/Dusky_dolphin
p3637
V52
p3638
sVhttp://dbpedia.org/resource/Tawny_owl
p3639
V44
p3640
sVhttp://dbpedia.org/resource/Amanita_abrupta
p3641
V33
p3642
sVhttp://dbpedia.org/resource/Cairngorm_(horse)
p3643
V56
p3644
sVhttp://dbpedia.org/resource/Go_for_Gin
p3645
V57
p3646
sVhttp://dbpedia.org/resource/Somnus_(horse)
p3647
V63
p3648
sVhttp://dbpedia.org/resource/Palestine_sunbird
p3649
V42
p3650
sVhttp://dbpedia.org/resource/Sakura_shrimp
p3651
V59
p3652
sVhttp://dbpedia.org/resource/Sir_Bevys
p3653
V62
p3654
sVhttp://dbpedia.org/resource/Sefton_(racehorse)
p3655
V61
p3656
sVhttp://dbpedia.org/resource/Dwarf_manatee
p3657
V35
p3658
sVhttp://dbpedia.org/resource/Galatea_(horse)
p3659
V58
p3660
sVhttp://dbpedia.org/resource/Ferdinand_(horse)
p3661
V63
p3662
sVhttp://dbpedia.org/resource/Sultan_(horse)
p3663
V55
p3664
sVhttp://dbpedia.org/resource/Parsnip
p3665
V62
p3666
sVhttp://dbpedia.org/resource/Precocious_(horse)
p3667
V60
p3668
sVhttp://dbpedia.org/resource/Coregonus_bezola
p3669
V31
p3670
sVhttp://dbpedia.org/resource/Gentle_Thoughts_(horse)
p3671
V58
p3672
sVhttp://dbpedia.org/resource/Bobby's_Kitten
p3673
V57
p3674
sVhttp://dbpedia.org/resource/Hamas_(horse)
p3675
V57
p3676
sVhttp://dbpedia.org/resource/Elusive_Kate
p3677
V60
p3678
sVhttp://dbpedia.org/resource/Firing_Line_(horse)
p3679
V59
p3680
sVhttp://dbpedia.org/resource/Lammtarra
p3681
V67
p3682
sVhttp://dbpedia.org/resource/Hirschfeldia
p3683
V34
p3684
sVhttp://dbpedia.org/resource/Gemsbok
p3685
V49
p3686
sVhttp://dbpedia.org/resource/Petrushka_(horse)
p3687
V61
p3688
sVhttp://dbpedia.org/resource/Phallus_indusiatus
p3689
V54
p3690
sVhttp://dbpedia.org/resource/Hymenodictyon_parvifolium
p3691
V28
p3692
sVhttp://dbpedia.org/resource/Attraction_(horse)
p3693
V62
p3694
sVhttp://dbpedia.org/resource/Camelot_(horse)
p3695
V63
p3696
sVhttp://dbpedia.org/resource/Archidendron_bigeminum
p3697
V34
p3698
sVhttp://dbpedia.org/resource/Pinus_ponderosa
p3699
V50
p3700
sVhttp://dbpedia.org/resource/Don_John_(horse)
p3701
V60
p3702
sVhttp://dbpedia.org/resource/Military_Attack
p3703
V61
p3704
sVhttp://dbpedia.org/resource/Chicory
p3705
V54
p3706
sVhttp://dbpedia.org/resource/Giant_oceanic_manta_ray
p3707
V46
p3708
sVhttp://dbpedia.org/resource/Procapra
p3709
V37
p3710
sVhttp://dbpedia.org/resource/Victoire_Pisa
p3711
V62
p3712
sVhttp://dbpedia.org/resource/Tie_the_Knot
p3713
V61
p3714
sVhttp://dbpedia.org/resource/Synodontis_tessmanni
p3715
V32
p3716
sVhttp://dbpedia.org/resource/Dream_Ahead
p3717
V61
p3718
sVhttp://dbpedia.org/resource/Synodontis_katangae
p3719
V33
p3720
sVhttp://dbpedia.org/resource/Stuka_(horse)
p3721
V59
p3722
sVhttp://dbpedia.org/resource/Main_Sequence_(horse)
p3723
V62
p3724
sVhttp://dbpedia.org/resource/Corn_crake
p3725
V49
p3726
sVhttp://dbpedia.org/resource/Humblot's_sunbird
p3727
V31
p3728
sVhttp://dbpedia.org/resource/Sweet_Catomine
p3729
V61
p3730
sVhttp://dbpedia.org/resource/Synodontis_centralis
p3731
V32
p3732
sVhttp://dbpedia.org/resource/Masked_Marvel_(horse)
p3733
V62
p3734
sVhttp://dbpedia.org/resource/Vertigo_geyeri
p3735
V33
p3736
sVhttp://dbpedia.org/resource/Agaricus_deserticola
p3737
V36
p3738
sVhttp://dbpedia.org/resource/Jewel_Princess
p3739
V62
p3740
sVhttp://dbpedia.org/resource/Mongalla_gazelle
p3741
V38
p3742
sVhttp://dbpedia.org/resource/Phallus_ravenelii
p3743
V43
p3744
sVhttp://dbpedia.org/resource/Black_Jester
p3745
V60
p3746
sVhttp://dbpedia.org/resource/Lavandin_(horse)
p3747
V60
p3748
sVhttp://dbpedia.org/resource/Carrot
p3749
V89
p3750
sVhttp://dbpedia.org/resource/Synodontis_waterloti
p3751
V32
p3752
sVhttp://dbpedia.org/resource/Malibu_Pier_(horse)
p3753
V57
p3754
sVhttp://dbpedia.org/resource/Ibn_Bey
p3755
V63
p3756
sVhttp://dbpedia.org/resource/Elegant_Prince
p3757
V56
p3758
sVhttp://dbpedia.org/resource/Pea
p3759
V90
p3760
sVhttp://dbpedia.org/resource/Holocnemus_pluchei
p3761
V37
p3762
sVhttp://dbpedia.org/resource/Wild_water_buffalo
p3763
V45
p3764
sVhttp://dbpedia.org/resource/Raise_a_Native
p3765
V65
p3766
sVhttp://dbpedia.org/resource/New_Approach
p3767
V66
p3768
sVhttp://dbpedia.org/resource/Mr_Brooks_(horse)
p3769
V59
p3770
sVhttp://dbpedia.org/resource/Daddy_Long_Legs_(horse)
p3771
V61
p3772
sVhttp://dbpedia.org/resource/Pall_Mall_(horse)
p3773
V60
p3774
sVhttp://dbpedia.org/resource/Lion
p3775
V66
p3776
sVhttp://dbpedia.org/resource/Arbutus_arizonica
p3777
V32
p3778
sVhttp://dbpedia.org/resource/Highclere_(horse)
p3779
V58
p3780
sVhttp://dbpedia.org/resource/Lear_Fan
p3781
V59
p3782
sVhttp://dbpedia.org/resource/Dancing_Maid
p3783
V60
p3784
sVhttp://dbpedia.org/resource/Kingsgate_Native
p3785
V58
p3786
sVhttp://dbpedia.org/resource/Persian_leopard
p3787
V45
p3788
sVhttp://dbpedia.org/resource/Synodontis_robbianus
p3789
V32
p3790
sVhttp://dbpedia.org/resource/Top_Ville
p3791
V59
p3792
sVhttp://dbpedia.org/resource/Myxine_glutinosa
p3793
V31
p3794
sVhttp://dbpedia.org/resource/Lelwel_hartebeest
p3795
V48
p3796
sVhttp://dbpedia.org/resource/Elnadim
p3797
V60
p3798
sVhttp://dbpedia.org/resource/Vautour_(horse)
p3799
V61
p3800
sVhttp://dbpedia.org/resource/Drum_Taps_(horse)
p3801
V62
p3802
sVhttp://dbpedia.org/resource/St_Paddy
p3803
V63
p3804
sVhttp://dbpedia.org/resource/Brachiaria_mutica
p3805
V28
p3806
sVhttp://dbpedia.org/resource/Himalayan_bulbul
p3807
V36
p3808
sVhttp://dbpedia.org/resource/Red-backed_fairywren
p3809
V32
p3810
sVhttp://dbpedia.org/resource/Revoque
p3811
V60
p3812
sVhttp://dbpedia.org/resource/Peeress_(horse)
p3813
V63
p3814
sVhttp://dbpedia.org/resource/Malva_sylvestris
p3815
V37
p3816
sVhttp://dbpedia.org/resource/Black_Helen
p3817
V35
p3818
sVhttp://dbpedia.org/resource/Blue_Duster
p3819
V63
p3820
sVhttp://dbpedia.org/resource/Smart_Strike
p3821
V34
p3822
sVhttp://dbpedia.org/resource/Ophrys_umbilicata
p3823
V36
p3824
sVhttp://dbpedia.org/resource/Mauritius_starling
p3825
V28
p3826
sVhttp://dbpedia.org/resource/Sahpresa
p3827
V57
p3828
sVhttp://dbpedia.org/resource/Hill_Prince
p3829
V64
p3830
sVhttp://dbpedia.org/resource/Amanita_jacksonii
p3831
V38
p3832
sVhttp://dbpedia.org/resource/Grey_Swallow
p3833
V59
p3834
sVhttp://dbpedia.org/resource/Orlando_(horse)
p3835
V60
p3836
sVhttp://dbpedia.org/resource/Ophiomorus_latastii
p3837
V42
p3838
sVhttp://dbpedia.org/resource/Lemhi_Gold
p3839
V62
p3840
sVhttp://dbpedia.org/resource/Mountain_reedbuck
p3841
V46
p3842
sVhttp://dbpedia.org/resource/Lethal_Force
p3843
V58
p3844
sVhttp://dbpedia.org/resource/Kingman_(British_horse)
p3845
V67
p3846
sVhttp://dbpedia.org/resource/Dancing_Time
p3847
V57
p3848
sVhttp://dbpedia.org/resource/Glyptodon
p3849
V37
p3850
sVhttp://dbpedia.org/resource/Pecan
p3851
V76
p3852
sVhttp://dbpedia.org/resource/Chief_Bearhart
p3853
V64
p3854
sVhttp://dbpedia.org/resource/Champagne_Fever
p3855
V59
p3856
sVhttp://dbpedia.org/resource/Eremias_pleskei
p3857
V28
p3858
sVhttp://dbpedia.org/resource/Bondi_Beach_(horse)
p3859
V58
p3860
sVhttp://dbpedia.org/resource/Synodontis_geledensis
p3861
V32
p3862
sVhttp://dbpedia.org/resource/Agaricus_bernardii
p3863
V33
p3864
sVhttp://dbpedia.org/resource/Roman_Brother
p3865
V60
p3866
sVhttp://dbpedia.org/resource/Prince_Leopold_(horse)
p3867
V58
p3868
sVhttp://dbpedia.org/resource/Don_Cossack_(horse)
p3869
V58
p3870
sVhttp://dbpedia.org/resource/White-crested_hornbill
p3871
V41
p3872
sVhttp://dbpedia.org/resource/Serena's_Song
p3873
V62
p3874
sVhttp://dbpedia.org/resource/Rhacophorus_bipunctatus
p3875
V33
p3876
sVhttp://dbpedia.org/resource/Megachile_campanulae
p3877
V31
p3878
sVhttp://dbpedia.org/resource/Gold_Ship
p3879
V64
p3880
sVhttp://dbpedia.org/resource/Madelia_(horse)
p3881
V62
p3882
sVhttp://dbpedia.org/resource/Chickpea
p3883
V74
p3884
sVhttp://dbpedia.org/resource/Blackeye_goby
p3885
V33
p3886
sVhttp://dbpedia.org/resource/Lucky_Pulpit
p3887
V60
p3888
sVhttp://dbpedia.org/resource/Snow_Knight
p3889
V60
p3890
sVhttp://dbpedia.org/resource/Keen_Ice
p3891
V58
p3892
sVhttp://dbpedia.org/resource/Lemon-chested_greenlet
p3893
V34
p3894
sVhttp://dbpedia.org/resource/Albertas_Run
p3895
V59
p3896
sVhttp://dbpedia.org/resource/Synodontis_khartoumensis
p3897
V32
p3898
sVhttp://dbpedia.org/resource/Muhtarram
p3899
V62
p3900
sVhttp://dbpedia.org/resource/Salvia_divinorum
p3901
V40
p3902
sVhttp://dbpedia.org/resource/Blackstairmountain
p3903
V59
p3904
sVhttp://dbpedia.org/resource/Red_hartebeest
p3905
V45
p3906
sVhttp://dbpedia.org/resource/Oats_(horse)
p3907
V56
p3908
sVhttp://dbpedia.org/resource/Monteverdi_(horse)
p3909
V59
p3910
sVhttp://dbpedia.org/resource/Epipactis_helleborine
p3911
V34
p3912
sVhttp://dbpedia.org/resource/North_Stoke_(horse)
p3913
V56
p3914
sVhttp://dbpedia.org/resource/Homo_erectus
p3915
V43
p3916
sVhttp://dbpedia.org/resource/Mine_That_Bird
p3917
V66
p3918
sVhttp://dbpedia.org/resource/White-faced_saki
p3919
V46
p3920
sVhttp://dbpedia.org/resource/Galcador
p3921
V61
p3922
sVhttp://dbpedia.org/resource/Black-faced_Impala
p3923
V31
p3924
sVhttp://dbpedia.org/resource/Aardwolf
p3925
V53
p3926
sVhttp://dbpedia.org/resource/Picaroon_(horse)
p3927
V57
p3928
sVhttp://dbpedia.org/resource/Fenestraja_plutonia
p3929
V32
p3930
sVhttp://dbpedia.org/resource/Teleprompter_(horse)
p3931
V60
p3932
sVhttp://dbpedia.org/resource/Bosra_Sham
p3933
V65
p3934
sVhttp://dbpedia.org/resource/Morston_(horse)
p3935
V57
p3936
sVhttp://dbpedia.org/resource/Champs_Elysees_(horse)
p3937
V32
p3938
sVhttp://dbpedia.org/resource/Mangifera_indica
p3939
V53
p3940
sVhttp://dbpedia.org/resource/Scarlet_macaw
p3941
V48
p3942
sVhttp://dbpedia.org/resource/Frontier_(horse)
p3943
V62
p3944
sVhttp://dbpedia.org/resource/Look_Here_(horse)
p3945
V61
p3946
sVhttp://dbpedia.org/resource/Barasingha
p3947
V43
p3948
sVhttp://dbpedia.org/resource/Vodka_(horse)
p3949
V65
p3950
sVhttp://dbpedia.org/resource/Common_(horse)
p3951
V60
p3952
sVhttp://dbpedia.org/resource/Epiphaneia_(horse)
p3953
V60
p3954
sVhttp://dbpedia.org/resource/Alaskan_tundra_wolf
p3955
V36
p3956
sVhttp://dbpedia.org/resource/Triops_longicaudatus
p3957
V36
p3958
sVhttp://dbpedia.org/resource/Mariacci
p3959
V59
p3960
sVhttp://dbpedia.org/resource/Smolensko_(horse)
p3961
V57
p3962
sVhttp://dbpedia.org/resource/Capparis
p3963
V34
p3964
sVhttp://dbpedia.org/resource/Erhaab
p3965
V63
p3966
sVhttp://dbpedia.org/resource/Roderic_O'Connor_(horse)
p3967
V61
p3968
sVhttp://dbpedia.org/resource/Omaha_(horse)
p3969
V65
p3970
sVhttp://dbpedia.org/resource/Mirska
p3971
V57
p3972
sVhttp://dbpedia.org/resource/Synodontis_acanthoperca
p3973
V33
p3974
sVhttp://dbpedia.org/resource/Riverine_rabbit
p3975
V28
p3976
sVhttp://dbpedia.org/resource/Vietnamese_three-striped_box_turtle
p3977
V32
p3978
sVhttp://dbpedia.org/resource/Cortinarius_cinnamomeus
p3979
V33
p3980
sVhttp://dbpedia.org/resource/Rhinella_acutirostris
p3981
V32
p3982
sVhttp://dbpedia.org/resource/Scincella_silvicola
p3983
V29
p3984
sVhttp://dbpedia.org/resource/Rose-ringed_parakeet
p3985
V46
p3986
sVhttp://dbpedia.org/resource/Leopard
p3987
V61
p3988
sVhttp://dbpedia.org/resource/Sea_Bird
p3989
V62
p3990
sVhttp://dbpedia.org/resource/Wise_Dan
p3991
V62
p3992
sVhttp://dbpedia.org/resource/Synodontis_woosnami
p3993
V33
p3994
sVhttp://dbpedia.org/resource/Sternocera_orissa
p3995
V30
p3996
sVhttp://dbpedia.org/resource/Barathea_(horse)
p3997
V65
p3998
sVhttp://dbpedia.org/resource/Quercus_havardii
p3999
V30
p4000
sVhttp://dbpedia.org/resource/Great_Heavens
p4001
V60
p4002
sVhttp://dbpedia.org/resource/Texas_wolf
p4003
V36
p4004
sVhttp://dbpedia.org/resource/Peach
p4005
V66
p4006
sVhttp://dbpedia.org/resource/Ajdal
p4007
V60
p4008
sVhttp://dbpedia.org/resource/Golden_Attraction
p4009
V30
p4010
sVhttp://dbpedia.org/resource/Smilax_aspera
p4011
V33
p4012
sVhttp://dbpedia.org/resource/Connaught_Bridge
p4013
V58
p4014
sVhttp://dbpedia.org/resource/Kotashaan
p4015
V63
p4016
sVhttp://dbpedia.org/resource/Purple_mangosteen
p4017
V56
p4018
sVhttp://dbpedia.org/resource/Assault_(horse)
p4019
V64
p4020
sVhttp://dbpedia.org/resource/Galapagos_penguin
p4021
V43
p4022
sVhttp://dbpedia.org/resource/Lap-dog_(horse)
p4023
V57
p4024
sVhttp://dbpedia.org/resource/Granville_Again
p4025
V57
p4026
sVhttp://dbpedia.org/resource/Spion_Kop_(horse)
p4027
V61
p4028
sVhttp://dbpedia.org/resource/Hypogeomys_australis
p4029
V32
p4030
sVhttp://dbpedia.org/resource/Hermit_(horse)
p4031
V63
p4032
sVhttp://dbpedia.org/resource/Leek
p4033
V49
p4034
sVhttp://dbpedia.org/resource/Pensive
p4035
V60
p4036
sVhttp://dbpedia.org/resource/Flakey_Dove
p4037
V55
p4038
sVhttp://dbpedia.org/resource/Juglans_microcarpa
p4039
V33
p4040
sVhttp://dbpedia.org/resource/Sun_Castle
p4041
V58
p4042
sVhttp://dbpedia.org/resource/Touching_Wood
p4043
V62
p4044
sVhttp://dbpedia.org/resource/Roystonea_lenis
p4045
V27
p4046
sVhttp://dbpedia.org/resource/Sequoia_sempervirens
p4047
V51
p4048
sVhttp://dbpedia.org/resource/Amanita_vaginata
p4049
V32
p4050
sVhttp://dbpedia.org/resource/Sonneratia_alba
p4051
V31
p4052
sVhttp://dbpedia.org/resource/Northern_goshawk
p4053
V48
p4054
sVhttp://dbpedia.org/resource/West_African_giraffe
p4055
V45
p4056
sVhttp://dbpedia.org/resource/Polylepis_rugulosa
p4057
V32
p4058
sVhttp://dbpedia.org/resource/I'll_Have_Another
p4059
V63
p4060
sVhttp://dbpedia.org/resource/Mrs_McArdy
p4061
V57
p4062
sVhttp://dbpedia.org/resource/Salvia_judaica
p4063
V32
p4064
sVhttp://dbpedia.org/resource/His_Majesty_(horse)
p4065
V62
p4066
sVhttp://dbpedia.org/resource/Super_Saver_(horse)
p4067
V61
p4068
sVhttp://dbpedia.org/resource/Sea_otter
p4069
V55
p4070
sVhttp://dbpedia.org/resource/Antipodean_albatross
p4071
V45
p4072
sVhttp://dbpedia.org/resource/Origanum_syriacum
p4073
V40
p4074
sVhttp://dbpedia.org/resource/Ruby-throated_hummingbird
p4075
V46
p4076
sVhttp://dbpedia.org/resource/Cranberry
p4077
V65
p4078
sVhttp://dbpedia.org/resource/Crataegus_azarolus
p4079
V38
p4080
sVhttp://dbpedia.org/resource/Dank_(horse)
p4081
V60
p4082
sVhttp://dbpedia.org/resource/Prove_It_(horse)
p4083
V26
p4084
sVhttp://dbpedia.org/resource/Hawk_Wing
p4085
V66
p4086
sVhttp://dbpedia.org/resource/Leucopaxillus_gentianeus
p4087
V32
p4088
sVhttp://dbpedia.org/resource/Red_Marauder
p4089
V57
p4090
sVhttp://dbpedia.org/resource/Coke's_hartebeest
p4091
V48
p4092
sVhttp://dbpedia.org/resource/Excelebration
p4093
V62
p4094
sVhttp://dbpedia.org/resource/Orwell_(horse)
p4095
V57
p4096
sVhttp://dbpedia.org/resource/Ridge_Wood
p4097
V59
p4098
sVhttp://dbpedia.org/resource/Kris_Kin
p4099
V61
p4100
sVhttp://dbpedia.org/resource/Pinza
p4101
V64
p4102
sVhttp://dbpedia.org/resource/Santa_Claus_(horse)
p4103
V60
p4104
sVhttp://dbpedia.org/resource/Poseidon_(horse)
p4105
V59
p4106
sVhttp://dbpedia.org/resource/Fairy_King
p4107
V61
p4108
sVhttp://dbpedia.org/resource/Cortinarius_praestans
p4109
V32
p4110
sVhttp://dbpedia.org/resource/Rook_(bird)
p4111
V45
p4112
sVhttp://dbpedia.org/resource/Black_Minnaloushe
p4113
V58
p4114
sVhttp://dbpedia.org/resource/Barbary_sheep
p4115
V46
p4116
sVhttp://dbpedia.org/resource/Cheirolophus_crassifolius
p4117
V34
p4118
sVhttp://dbpedia.org/resource/Dubawi
p4119
V60
p4120
sVhttp://dbpedia.org/resource/Scyllarides_latus
p4121
V34
p4122
sVhttp://dbpedia.org/resource/Lochnager
p4123
V56
p4124
sVhttp://dbpedia.org/resource/Cut_Above
p4125
V61
p4126
sVhttp://dbpedia.org/resource/Hindus_(horse)
p4127
V55
p4128
sVhttp://dbpedia.org/resource/Gyroporus_cyanescens
p4129
V33
p4130
sVhttp://dbpedia.org/resource/Refuse_To_Bend
p4131
V61
p4132
sVhttp://dbpedia.org/resource/Doyoun
p4133
V64
p4134
sVhttp://dbpedia.org/resource/Caractacus_(horse)
p4135
V66
p4136
sVhttp://dbpedia.org/resource/Beholder_(horse)
p4137
V60
p4138
sVhttp://dbpedia.org/resource/Celtic_Swing
p4139
V35
p4140
sVhttp://dbpedia.org/resource/Queen's_Logic
p4141
V62
p4142
sVhttp://dbpedia.org/resource/Teddy_(horse)
p4143
V59
p4144
sVhttp://dbpedia.org/resource/Pentire
p4145
V60
p4146
sVhttp://dbpedia.org/resource/Chriselliam
p4147
V60
p4148
sVhttp://dbpedia.org/resource/Beeswing_(horse)
p4149
V62
p4150
sVhttp://dbpedia.org/resource/Coregonus_bavaricus
p4151
V32
p4152
sVhttp://dbpedia.org/resource/Blair_Athol_(horse)
p4153
V60
p4154
sVhttp://dbpedia.org/resource/Clairvoyant_(horse)
p4155
V54
p4156
sVhttp://dbpedia.org/resource/Murray_River_turtle
p4157
V33
p4158
sVhttp://dbpedia.org/resource/Slaty-breasted_tinamou
p4159
V33
p4160
sVhttp://dbpedia.org/resource/Bay_Ronald
p4161
V59
p4162
sVhttp://dbpedia.org/resource/Durio_zibethinus
p4163
V59
p4164
sVhttp://dbpedia.org/resource/Chop_Chop_(horse)
p4165
V62
p4166
sVhttp://dbpedia.org/resource/Horseshoe_whip_snake
p4167
V31
p4168
sVhttp://dbpedia.org/resource/Phar_Lap
p4169
V60
p4170
sVhttp://dbpedia.org/resource/Mouktar
p4171
V60
p4172
sVhttp://dbpedia.org/resource/Cerbalus
p4173
V36
p4174
sVhttp://dbpedia.org/resource/Bellypha
p4175
V59
p4176
sVhttp://dbpedia.org/resource/In_The_Groove_(horse)
p4177
V56
p4178
sVhttp://dbpedia.org/resource/Phalaris_(horse)
p4179
V64
p4180
sVhttp://dbpedia.org/resource/Cobweb_(horse)
p4181
V59
p4182
sVhttp://dbpedia.org/resource/Mongo_(horse)
p4183
V59
p4184
sVhttp://dbpedia.org/resource/Caribbean_reef_shark
p4185
V43
p4186
sVhttp://dbpedia.org/resource/Sunstar
p4187
V61
p4188
sVhttp://dbpedia.org/resource/Whale_shark
p4189
V63
p4190
sVhttp://dbpedia.org/resource/Chironomus
p4191
V36
p4192
sVhttp://dbpedia.org/resource/Synodontis_haugi
p4193
V32
p4194
sVhttp://dbpedia.org/resource/Suillellus_amygdalinus
p4195
V40
p4196
sVhttp://dbpedia.org/resource/In_Lingerie
p4197
V58
p4198
sVhttp://dbpedia.org/resource/Charlotte_West_(horse)
p4199
V58
p4200
sVhttp://dbpedia.org/resource/Tromos
p4201
V59
p4202
sVhttp://dbpedia.org/resource/Like-A-Butterfly
p4203
V59
p4204
sVhttp://dbpedia.org/resource/Al_Bahathri
p4205
V62
p4206
sVhttp://dbpedia.org/resource/Cossack_(horse)
p4207
V57
p4208
sVhttp://dbpedia.org/resource/Literato
p4209
V60
p4210
sVhttp://dbpedia.org/resource/Lemberg_(horse)
p4211
V59
p4212
sVhttp://dbpedia.org/resource/Galileo_(horse)
p4213
V66
p4214
sVhttp://dbpedia.org/resource/Sonic_Lady
p4215
V58
p4216
sVhttp://dbpedia.org/resource/Overdose_(horse)
p4217
V56
p4218
sVhttp://dbpedia.org/resource/Vinnie_Roe
p4219
V61
p4220
sVhttp://dbpedia.org/resource/Juglans_cinerea
p4221
V68
p4222
sVhttp://dbpedia.org/resource/Limonium_sinuatum
p4223
V36
p4224
sVhttp://dbpedia.org/resource/Sunny's_Halo
p4225
V62
p4226
sVhttp://dbpedia.org/resource/Superstar_Leo
p4227
V62
p4228
sVhttp://dbpedia.org/resource/Bijou_d'Inde
p4229
V57
p4230
sVhttp://dbpedia.org/resource/Albatross
p4231
V48
p4232
sVhttp://dbpedia.org/resource/Rock_of_Gibraltar_(horse)
p4233
V65
p4234
sVhttp://dbpedia.org/resource/Swietenia_macrophylla
p4235
V34
p4236
sVhttp://dbpedia.org/resource/Bimelech
p4237
V68
p4238
sVhttp://dbpedia.org/resource/Devil's_Bag
p4239
V64
p4240
sVhttp://dbpedia.org/resource/Hanover_(horse)
p4241
V68
p4242
sVhttp://dbpedia.org/resource/Salanoia_durrelli
p4243
V38
p4244
sVhttp://dbpedia.org/resource/Soybean
p4245
V97
p4246
sVhttp://dbpedia.org/resource/Gentilhombre_(horse)
p4247
V56
p4248
sVhttp://dbpedia.org/resource/Alhagi_maurorum
p4249
V36
p4250
sVhttp://dbpedia.org/resource/The_Merry_Monarch
p4251
V55
p4252
sVhttp://dbpedia.org/resource/Pareas_hamptoni
p4253
V29
p4254
sVhttp://dbpedia.org/resource/Special_Duty
p4255
V65
p4256
sVhttp://dbpedia.org/resource/Jeddah_(horse)
p4257
V60
p4258
sVhttp://dbpedia.org/resource/White_Skies
p4259
V58
p4260
sVhttp://dbpedia.org/resource/User_Friendly_(horse)
p4261
V59
p4262
sVhttp://dbpedia.org/resource/Blue_nuthatch
p4263
V36
p4264
sVhttp://dbpedia.org/resource/Galapagos_land_iguana
p4265
V36
p4266
sVhttp://dbpedia.org/resource/Only_Royale
p4267
V59
p4268
sVhttp://dbpedia.org/resource/Natalma
p4269
V58
p4270
sVhttp://dbpedia.org/resource/Lactarius_sanguifluus
p4271
V33
p4272
sVhttp://dbpedia.org/resource/Go_and_Go
p4273
V63
p4274
sVhttp://dbpedia.org/resource/Kissing_Cousin_(horse)
p4275
V59
p4276
sVhttp://dbpedia.org/resource/Southern_Rocky_Mountains_wolf
p4277
V36
p4278
sVhttp://dbpedia.org/resource/Lambert_Simnel_(horse)
p4279
V57
p4280
sVhttp://dbpedia.org/resource/Synodontis_robertsi
p4281
V32
p4282
sVhttp://dbpedia.org/resource/Senecio_vernalis
p4283
V39
p4284
sVhttp://dbpedia.org/resource/Amblyteles_armatorius
p4285
V31
p4286
sVhttp://dbpedia.org/resource/Dearly_Precious
p4287
V60
p4288
sVhttp://dbpedia.org/resource/Sambar_deer
p4289
V46
p4290
sVhttp://dbpedia.org/resource/Cortinarius_semisanguineus
p4291
V33
p4292
sVhttp://dbpedia.org/resource/Queen_of_Trumps
p4293
V60
p4294
sVhttp://dbpedia.org/resource/Bongo_(antelope)
p4295
V51
p4296
sVhttp://dbpedia.org/resource/Sambucus
p4297
V53
p4298
sVhttp://dbpedia.org/resource/Empire_Glory
p4299
V62
p4300
sVhttp://dbpedia.org/resource/Medium_ground_finch
p4301
V40
p4302
sVhttp://dbpedia.org/resource/Martha's_Son
p4303
V55
p4304
sVhttp://dbpedia.org/resource/Tipula_excisa
p4305
V33
p4306
sVhttp://dbpedia.org/resource/Light_Cavalry_(horse)
p4307
V58
p4308
sVhttp://dbpedia.org/resource/Coronation_(British_horse)
p4309
V58
p4310
sVhttp://dbpedia.org/resource/Eleanor_(horse)
p4311
V60
p4312
sVhttp://dbpedia.org/resource/Milan_(horse)
p4313
V61
p4314
sVhttp://dbpedia.org/resource/Assassin_(horse)
p4315
V56
p4316
sVhttp://dbpedia.org/resource/Cashew
p4317
V73
p4318
sVhttp://dbpedia.org/resource/Julio_Mariner
p4319
V59
p4320
sVhttp://dbpedia.org/resource/Capreolinae
p4321
V37
p4322
sVhttp://dbpedia.org/resource/Commelina_erecta
p4323
V43
p4324
sVhttp://dbpedia.org/resource/Felicitation
p4325
V58
p4326
sVhttp://dbpedia.org/resource/Blakeney_(horse)
p4327
V60
p4328
sVhttp://dbpedia.org/resource/Thornfield
p4329
V62
p4330
sVhttp://dbpedia.org/resource/Halothamnus_bottae
p4331
V26
p4332
sVhttp://dbpedia.org/resource/Diamond_Jubilee_(horse)
p4333
V64
p4334
sVhttp://dbpedia.org/resource/Lomond_(horse)
p4335
V59
p4336
sVhttp://dbpedia.org/resource/Long-tailed_ground_roller
p4337
V31
p4338
sVhttp://dbpedia.org/resource/Momordica_charantia
p4339
V67
p4340
sVhttp://dbpedia.org/resource/Purpuricenus_laetus
p4341
V29
p4342
sVhttp://dbpedia.org/resource/Trithemis_annulata
p4343
V36
p4344
sVhttp://dbpedia.org/resource/Master_Oats
p4345
V56
p4346
sVhttp://dbpedia.org/resource/Shinzan
p4347
V60
p4348
sVhttp://dbpedia.org/resource/Rodrigo_de_Triano
p4349
V60
p4350
sVhttp://dbpedia.org/resource/Phaulopsis_imbricata
p4351
V28
p4352
sVhttp://dbpedia.org/resource/Castanea_mollissima
p4353
V74
p4354
sVhttp://dbpedia.org/resource/Godetia_(horse)
p4355
V58
p4356
sVhttp://dbpedia.org/resource/Morus_(plant)
p4357
V60
p4358
sVhttp://dbpedia.org/resource/Captain_Cuttle
p4359
V62
p4360
sVhttp://dbpedia.org/resource/Cortinarius_gentilis
p4361
V31
p4362
sVhttp://dbpedia.org/resource/Nimbus_(GB)
p4363
V62
p4364
sVhttp://dbpedia.org/resource/Vegetarian_finch
p4365
V42
p4366
sVhttp://dbpedia.org/resource/Blue_Wind
p4367
V61
p4368
sVhttp://dbpedia.org/resource/Doncaster_(horse)
p4369
V61
p4370
sVhttp://dbpedia.org/resource/Chard
p4371
V70
p4372
sVhttp://dbpedia.org/resource/American_Eclipse
p4373
V61
p4374
sVhttp://dbpedia.org/resource/Madam_Gay
p4375
V57
p4376
sVhttp://dbpedia.org/resource/Sperm_whale
p4377
V53
p4378
sVhttp://dbpedia.org/resource/Classic_Cliche
p4379
V63
p4380
sVhttp://dbpedia.org/resource/Suillus_spraguei
p4381
V38
p4382
sVhttp://dbpedia.org/resource/Tytthus
p4383
V29
p4384
sVhttp://dbpedia.org/resource/Orientate
p4385
V60
p4386
sVhttp://dbpedia.org/resource/Diminuendo_(horse)
p4387
V62
p4388
sVhttp://dbpedia.org/resource/Eurasian_harvest_mouse
p4389
V51
p4390
sVhttp://dbpedia.org/resource/Markhor
p4391
V46
p4392
sVhttp://dbpedia.org/resource/Display_(horse)
p4393
V59
p4394
sVhttp://dbpedia.org/resource/Swynford
p4395
V66
p4396
sVhttp://dbpedia.org/resource/Leopard_torpedo
p4397
V39
p4398
sVhttp://dbpedia.org/resource/Voalavo
p4399
V37
p4400
sVhttp://dbpedia.org/resource/Southern_Halo
p4401
V58
p4402
sVhttp://dbpedia.org/resource/Narita_Brian
p4403
V65
p4404
sVhttp://dbpedia.org/resource/Neanderthal
p4405
V60
p4406
sVhttp://dbpedia.org/resource/White-tailed_deer
p4407
V52
p4408
sVhttp://dbpedia.org/resource/Hippotragus
p4409
V35
p4410
sVhttp://dbpedia.org/resource/Northernette
p4411
V65
p4412
sVhttp://dbpedia.org/resource/Zarkandar
p4413
V64
p4414
sVhttp://dbpedia.org/resource/Intersky_Falcon
p4415
V61
p4416
sVhttp://dbpedia.org/resource/Amanita_bisporigera
p4417
V34
p4418
sVhttp://dbpedia.org/resource/Alamshar
p4419
V61
p4420
sVhttp://dbpedia.org/resource/Synodontis_greshoffi
p4421
V32
p4422
sVhttp://dbpedia.org/resource/Synodontis_violaceus
p4423
V32
p4424
sVhttp://dbpedia.org/resource/Owington
p4425
V59
p4426
sVhttp://dbpedia.org/resource/Western_hartebeest
p4427
V47
p4428
sVhttp://dbpedia.org/resource/Dill
p4429
V60
p4430
sVhttp://dbpedia.org/resource/Reel_Buddy
p4431
V58
p4432
sVhttp://dbpedia.org/resource/Catgut_(horse)
p4433
V58
p4434
sVhttp://dbpedia.org/resource/Private_Account
p4435
V60
p4436
sVhttp://dbpedia.org/resource/Halma_(horse)
p4437
V59
p4438
sVhttp://dbpedia.org/resource/Harbinger_(horse)
p4439
V63
p4440
sVhttp://dbpedia.org/resource/Orb_(horse)
p4441
V61
p4442
sVhttp://dbpedia.org/resource/Monomorium
p4443
V39
p4444
sVhttp://dbpedia.org/resource/Nonoalco
p4445
V59
p4446
sVhttp://dbpedia.org/resource/Oscar_Whisky
p4447
V58
p4448
sVhttp://dbpedia.org/resource/Saint_Liam
p4449
V61
p4450
sVhttp://dbpedia.org/resource/Tabasco_Cat
p4451
V58
p4452
sVhttp://dbpedia.org/resource/Phantom_(horse)
p4453
V59
p4454
sVhttp://dbpedia.org/resource/Lissonotus_flabellicornis
p4455
V29
p4456
sVhttp://dbpedia.org/resource/Common_kestrel
p4457
V54
p4458
sVhttp://dbpedia.org/resource/My_Emma
p4459
V59
p4460
sVhttp://dbpedia.org/resource/Filly_by_Selim
p4461
V57
p4462
sVhttp://dbpedia.org/resource/Teeton_Mill
p4463
V57
p4464
sVhttp://dbpedia.org/resource/Alanesian
p4465
V59
p4466
sVhttp://dbpedia.org/resource/Slieve_Gallion_(horse)
p4467
V58
p4468
sVhttp://dbpedia.org/resource/Henbit_(horse)
p4469
V61
p4470
sVhttp://dbpedia.org/resource/Challenger_(horse)
p4471
V60
p4472
sVhttp://dbpedia.org/resource/Oasis_Dream
p4473
V65
p4474
sVhttp://dbpedia.org/resource/Bahamian_Bounty
p4475
V60
p4476
sVhttp://dbpedia.org/resource/Margot_Did
p4477
V56
p4478
sVhttp://dbpedia.org/resource/Vigna_aconitifolia
p4479
V54
p4480
sVhttp://dbpedia.org/resource/Chief_Singer
p4481
V61
p4482
sVhttp://dbpedia.org/resource/Panaeolus_papilionaceus_var._papilionaceus
p4483
V35
p4484
sVhttp://dbpedia.org/resource/Green-throated_mountaingem
p4485
V28
p4486
sVhttp://dbpedia.org/resource/First_Dude_(horse)
p4487
V60
p4488
sVhttp://dbpedia.org/resource/Finian's_Rainbow_(horse)
p4489
V59
p4490
sVhttp://dbpedia.org/resource/Beldale_Flutter
p4491
V57
p4492
sVhttp://dbpedia.org/resource/Ormonde_(horse)
p4493
V69
p4494
sVhttp://dbpedia.org/resource/Harlan's_Holiday
p4495
V58
p4496
sVhttp://dbpedia.org/resource/Solanum_ensifolium
p4497
V32
p4498
sVhttp://dbpedia.org/resource/Bornean_white-bearded_gibbon
p4499
V41
p4500
sVhttp://dbpedia.org/resource/Larkspur_(horse)
p4501
V59
p4502
sVhttp://dbpedia.org/resource/Amanita_franchetii
p4503
V35
p4504
sVhttp://dbpedia.org/resource/Chukar_partridge
p4505
V46
p4506
sVhttp://dbpedia.org/resource/Pyrrhus_The_First
p4507
V57
p4508
sVhttp://dbpedia.org/resource/Lycoperdon_echinatum
p4509
V37
p4510
sVhttp://dbpedia.org/resource/Aspidura_copei
p4511
V29
p4512
sVhttp://dbpedia.org/resource/Winged_bean
p4513
V50
p4514
sVhttp://dbpedia.org/resource/Park_Express
p4515
V60
p4516
sVhttp://dbpedia.org/resource/Bruni_(horse)
p4517
V59
p4518
sVhttp://dbpedia.org/resource/Swiss_Maid
p4519
V58
p4520
sVhttp://dbpedia.org/resource/Amanita_vittadinii
p4521
V36
p4522
sVhttp://dbpedia.org/resource/Eurasian_sparrowhawk
p4523
V48
p4524
sVhttp://dbpedia.org/resource/Sir_Gallahad
p4525
V65
p4526
sVhttp://dbpedia.org/resource/Speckled_warbler
p4527
V33
p4528
sVhttp://dbpedia.org/resource/Bayardo_(horse)
p4529
V61
p4530
sVhttp://dbpedia.org/resource/Atropoides_nummifer
p4531
V34
p4532
sVhttp://dbpedia.org/resource/Xtra_Heat
p4533
V59
p4534
sVhttp://dbpedia.org/resource/Countess_Diana
p4535
V57
p4536
sVhttp://dbpedia.org/resource/Turn-To
p4537
V58
p4538
sVhttp://dbpedia.org/resource/St._Gatien
p4539
V57
p4540
sVhttp://dbpedia.org/resource/Tyrnavos_(horse)
p4541
V59
p4542
sVhttp://dbpedia.org/resource/Marsyas_(horse)
p4543
V59
p4544
sVhttp://dbpedia.org/resource/Blenheim_(horse)
p4545
V63
p4546
sVhttp://dbpedia.org/resource/Alibhai_(horse)
p4547
V57
p4548
sVhttp://dbpedia.org/resource/Ypthima_sakra
p4549
V29
p4550
sVhttp://dbpedia.org/resource/Tuber_(fungus)
p4551
V34
p4552
sVhttp://dbpedia.org/resource/Lepidocephalichthys_hasselti
p4553
V29
p4554
sVhttp://dbpedia.org/resource/Synodontis_resupinatus
p4555
V32
p4556
sVhttp://dbpedia.org/resource/Polygamy_(horse)
p4557
V56
p4558
sVhttp://dbpedia.org/resource/Lucarno
p4559
V60
p4560
sVhttp://dbpedia.org/resource/Shogun_Lodge
p4561
V53
p4562
sVhttp://dbpedia.org/resource/Hebeloma_aminophilum
p4563
V28
p4564
sVhttp://dbpedia.org/resource/Adonidia_merrillii
p4565
V33
p4566
sVhttp://dbpedia.org/resource/Sprinter_Sacre
p4567
V60
p4568
sVhttp://dbpedia.org/resource/Ile_de_Bourbon
p4569
V58
p4570
sVhttp://dbpedia.org/resource/Aggressor_(horse)
p4571
V58
p4572
sVhttp://dbpedia.org/resource/Kettledrum_(horse)
p4573
V61
p4574
sVhttp://dbpedia.org/resource/Close_Hatches
p4575
V60
p4576
sVhttp://dbpedia.org/resource/Nearula
p4577
V59
p4578
sVhttp://dbpedia.org/resource/Sidney's_Candy
p4579
V59
p4580
sVhttp://dbpedia.org/resource/Saonois
p4581
V54
p4582
sVhttp://dbpedia.org/resource/Kobus_(antelope)
p4583
V35
p4584
sVhttp://dbpedia.org/resource/Koelreuteria_bipinnata
p4585
V33
p4586
sVhttp://dbpedia.org/resource/Luffa_aegyptiaca
p4587
V50
p4588
sVhttp://dbpedia.org/resource/Tomato
p4589
V85
p4590
sVhttp://dbpedia.org/resource/Seychelles_gulper_shark
p4591
V29
p4592
sVhttp://dbpedia.org/resource/Victory_Tilly
p4593
V54
p4594
sVhttp://dbpedia.org/resource/Yellow-eared_toucanet
p4595
V38
p4596
sVhttp://dbpedia.org/resource/Broadway_Dancer
p4597
V59
p4598
sVhttp://dbpedia.org/resource/Estimate_(horse)
p4599
V64
p4600
sVhttp://dbpedia.org/resource/April_the_Fifth
p4601
V58
p4602
sVhttp://dbpedia.org/resource/Tudor_Queen
p4603
V61
p4604
sVhttp://dbpedia.org/resource/Solidago_gattingeri
p4605
V29
p4606
sVhttp://dbpedia.org/resource/Shuvee
p4607
V65
p4608
sVhttp://dbpedia.org/resource/Darlan_(horse)
p4609
V59
p4610
sVhttp://dbpedia.org/resource/White-mantled_tamarin
p4611
V42
p4612
sVhttp://dbpedia.org/resource/Synodontis_acanthomias
p4613
V32
p4614
sVhttp://dbpedia.org/resource/African_softshell_turtle
p4615
V34
p4616
sVhttp://dbpedia.org/resource/Rhododendron_subsect._Tsutsusi
p4617
V29
p4618
sVhttp://dbpedia.org/resource/Swale_(horse)
p4619
V63
p4620
sVhttp://dbpedia.org/resource/Lorius
p4621
V35
p4622
sVhttp://dbpedia.org/resource/Basil
p4623
V71
p4624
sVhttp://dbpedia.org/resource/Myrtlewood_(horse)
p4625
V33
p4626
sVhttp://dbpedia.org/resource/Weekend_Hussler
p4627
V60
p4628
sVhttp://dbpedia.org/resource/Boa_constrictor
p4629
V42
p4630
sVhttp://dbpedia.org/resource/Kane_Hekili
p4631
V33
p4632
sVhttp://dbpedia.org/resource/War_Front_(horse)
p4633
V62
p4634
sVhttp://dbpedia.org/resource/Collybia_cirrhata
p4635
V37
p4636
sVhttp://dbpedia.org/resource/Red_lory
p4637
V31
p4638
sVhttp://dbpedia.org/resource/Persian_Gulf_(horse)
p4639
V57
p4640
sVhttp://dbpedia.org/resource/Copenhagen_(horse)
p4641
V64
p4642
sVhttp://dbpedia.org/resource/Gio_Ponti_(horse)
p4643
V62
p4644
sVhttp://dbpedia.org/resource/Hernando_(horse)
p4645
V59
p4646
sVhttp://dbpedia.org/resource/Mycena_stylobates
p4647
V33
p4648
sVhttp://dbpedia.org/resource/Plenipotentiary_(horse)
p4649
V57
p4650
sVhttp://dbpedia.org/resource/Buckwheat
p4651
V85
p4652
sVhttp://dbpedia.org/resource/Khorasan_wheat
p4653
V49
p4654
sVhttp://dbpedia.org/resource/Champion_(horse)
p4655
V58
p4656
sVhttp://dbpedia.org/resource/Giraffe
p4657
V55
p4658
sVhttp://dbpedia.org/resource/Bird_Town
p4659
V61
p4660
sVhttp://dbpedia.org/resource/Herring_scad
p4661
V33
p4662
sVhttp://dbpedia.org/resource/Finless_porpoise
p4663
V48
p4664
sVhttp://dbpedia.org/resource/Better_Loosen_Up
p4665
V63
p4666
sVhttp://dbpedia.org/resource/Southern_elephant_seal
p4667
V53
p4668
sVhttp://dbpedia.org/resource/Giacometti_(horse)
p4669
V55
p4670
sVhttp://dbpedia.org/resource/Coyote
p4671
V50
p4672
sVhttp://dbpedia.org/resource/Pinguicula
p4673
V34
p4674
sVhttp://dbpedia.org/resource/Zaretis_itys
p4675
V29
p4676
sVhttp://dbpedia.org/resource/Uncle_Mo
p4677
V63
p4678
sVhttp://dbpedia.org/resource/Manduro
p4679
V60
p4680
sVhttp://dbpedia.org/resource/Heart's_Cry_(horse)
p4681
V60
p4682
sVhttp://dbpedia.org/resource/Linita
p4683
V57
p4684
sVhttp://dbpedia.org/resource/Love_Divine
p4685
V60
p4686
sVhttp://dbpedia.org/resource/Will_Take_Charge
p4687
V64
p4688
sVhttp://dbpedia.org/resource/Juliette_Marny
p4689
V59
p4690
sVhttp://dbpedia.org/resource/Lesser_Ryukyu_shrew
p4691
V26
p4692
sVhttp://dbpedia.org/resource/Rhacophorus_rhodopus
p4693
V32
p4694
sVhttp://dbpedia.org/resource/Little_Current
p4695
V61
p4696
sVhttp://dbpedia.org/resource/Polygonia_undina
p4697
V33
p4698
sVhttp://dbpedia.org/resource/Notnowcato
p4699
V61
p4700
sVhttp://dbpedia.org/resource/Spirula
p4701
V48
p4702
sVhttp://dbpedia.org/resource/Carry_Back
p4703
V60
p4704
sVhttp://dbpedia.org/resource/Saratoga_Dew
p4705
V62
p4706
sVhttp://dbpedia.org/resource/Leucopaxillus_giganteus
p4707
V32
p4708
sVhttp://dbpedia.org/resource/Wicked_Strong
p4709
V60
p4710
sVhttp://dbpedia.org/resource/Posse_(horse)
p4711
V60
p4712
sVhttp://dbpedia.org/resource/Bacchanal_(horse)
p4713
V57
p4714
sVhttp://dbpedia.org/resource/Araldo_(horse)
p4715
V51
p4716
sVhttp://dbpedia.org/resource/Chimes_of_Freedom_(horse)
p4717
V58
p4718
sVhttp://dbpedia.org/resource/Ohilimia
p4719
V34
p4720
sVhttp://dbpedia.org/resource/Deputed_Testamony
p4721
V59
p4722
sVhttp://dbpedia.org/resource/Giant_anteater
p4723
V54
p4724
sVhttp://dbpedia.org/resource/Palace_Music_(horse)
p4725
V31
p4726
sVhttp://dbpedia.org/resource/Lake_Coniston
p4727
V59
p4728
sVhttp://dbpedia.org/resource/Neotragus
p4729
V36
p4730
sVhttp://dbpedia.org/resource/Isinglass_(horse)
p4731
V65
p4732
sVhttp://dbpedia.org/resource/Night_Nurse_(horse)
p4733
V58
p4734
sVhttp://dbpedia.org/resource/Eel
p4735
V43
p4736
sVhttp://dbpedia.org/resource/Bartlett's_Childers
p4737
V37
p4738
sVhttp://dbpedia.org/resource/Artichoke
p4739
V78
p4740
sVhttp://dbpedia.org/resource/Snap_(horse)
p4741
V58
p4742
sVhttp://dbpedia.org/resource/It's_Tricky_(horse)
p4743
V57
p4744
sVhttp://dbpedia.org/resource/Boletus_subvelutipes
p4745
V37
p4746
sVhttp://dbpedia.org/resource/Coluber_constrictor_foxii
p4747
V32
p4748
sVhttp://dbpedia.org/resource/Vitiges_(horse)
p4749
V57
p4750
sVhttp://dbpedia.org/resource/Moose
p4751
V51
p4752
sVhttp://dbpedia.org/resource/Homecoming_Queen_(horse)
p4753
V62
p4754
sVhttp://dbpedia.org/resource/Southern_masked_weaver
p4755
V40
p4756
sVhttp://dbpedia.org/resource/Klipspringer
p4757
V55
p4758
sVhttp://dbpedia.org/resource/Trabolgan
p4759
V62
p4760
sVhttp://dbpedia.org/resource/Hansel_(horse)
p4761
V62
p4762
sVhttp://dbpedia.org/resource/Tiffin_(horse)
p4763
V62
p4764
sVhttp://dbpedia.org/resource/South_Island_saddleback
p4765
V32
p4766
sVhttp://dbpedia.org/resource/Coffea_liberica
p4767
V37
p4768
sVhttp://dbpedia.org/resource/Petasites_japonicus
p4769
V48
p4770
sVhttp://dbpedia.org/resource/Opuntia
p4771
V46
p4772
sVhttp://dbpedia.org/resource/J._O._Tobin
p4773
V64
p4774
sVhttp://dbpedia.org/resource/Gray_whale
p4775
V53
p4776
sVhttp://dbpedia.org/resource/Bold_Ruler
p4777
V64
p4778
sVhttp://dbpedia.org/resource/Citrus
p4779
V57
p4780
sVhttp://dbpedia.org/resource/Filho_da_Puta
p4781
V61
p4782
sVhttp://dbpedia.org/resource/Encosta_De_Lago
p4783
V64
p4784
sVhttp://dbpedia.org/resource/Artax_(horse)
p4785
V32
p4786
sVhttp://dbpedia.org/resource/Synodontis_ansorgii
p4787
V32
p4788
sVhttp://dbpedia.org/resource/Streaked_scrub_warbler
p4789
V40
p4790
sVhttp://dbpedia.org/resource/Yagli_(horse)
p4791
V59
p4792
sVhttp://dbpedia.org/resource/Papilio_menatius
p4793
V31
p4794
sVhttp://dbpedia.org/resource/Rhinotyphlops_simoni
p4795
V42
p4796
sVhttp://dbpedia.org/resource/Bay_Middleton_(horse)
p4797
V63
p4798
sVhttp://dbpedia.org/resource/Seattle_Dancer
p4799
V62
p4800
sVhttp://dbpedia.org/resource/Valyra_(horse)
p4801
V62
p4802
sVhttp://dbpedia.org/resource/Guadeloupe_parakeet
p4803
V33
p4804
sVhttp://dbpedia.org/resource/Brian_Boru_(horse)
p4805
V61
p4806
sVhttp://dbpedia.org/resource/Bay_Express_(horse)
p4807
V55
p4808
sVhttp://dbpedia.org/resource/Leighton's_linsang
p4809
V27
p4810
sVhttp://dbpedia.org/resource/Street_Sense_(horse)
p4811
V62
p4812
sVhttp://dbpedia.org/resource/Precious_Bunny
p4813
V57
p4814
sVhttp://dbpedia.org/resource/Avonbridge_(horse)
p4815
V60
p4816
sVhttp://dbpedia.org/resource/Star_Pilot_(horse)
p4817
V32
p4818
sVhttp://dbpedia.org/resource/Groupie_Doll
p4819
V59
p4820
sVhttp://dbpedia.org/resource/Musidora_(horse)
p4821
V60
p4822
sVhttp://dbpedia.org/resource/Reform_(horse)
p4823
V63
p4824
sVhttp://dbpedia.org/resource/Shergar
p4825
V69
p4826
sVhttp://dbpedia.org/resource/Open_Mind_(horse)
p4827
V64
p4828
sVhttp://dbpedia.org/resource/Deceit_Dancer
p4829
V33
p4830
sVhttp://dbpedia.org/resource/Amanita_hemibapha
p4831
V32
p4832
sVhttp://dbpedia.org/resource/New_Guinea_mudskipper
p4833
V31
p4834
sVhttp://dbpedia.org/resource/Dutch_Oven
p4835
V60
p4836
sVhttp://dbpedia.org/resource/Osprey
p4837
V58
p4838
sVhttp://dbpedia.org/resource/Jolypha
p4839
V58
p4840
sVhttp://dbpedia.org/resource/Hurry_On
p4841
V63
p4842
sVhttp://dbpedia.org/resource/Crowned_eagle
p4843
V41
p4844
sVhttp://dbpedia.org/resource/Sauropus_macranthus
p4845
V27
p4846
sVhttp://dbpedia.org/resource/Clupea
p4847
V34
p4848
sVhttp://dbpedia.org/resource/Loquat
p4849
V86
p4850
sVhttp://dbpedia.org/resource/Cigar_(horse)
p4851
V68
p4852
sVhttp://dbpedia.org/resource/Starborough
p4853
V59
p4854
sVhttp://dbpedia.org/resource/Melanoleuca
p4855
V32
p4856
sVhttp://dbpedia.org/resource/New_Year's_Day_(horse)
p4857
V56
p4858
sVhttp://dbpedia.org/resource/Malaysian_partridge
p4859
V26
p4860
sVhttp://dbpedia.org/resource/Flares_(horse)
p4861
V58
p4862
sVhttp://dbpedia.org/resource/Magic_of_Life
p4863
V59
p4864
sVhttp://dbpedia.org/resource/Oat
p4865
V58
p4866
sVhttp://dbpedia.org/resource/Grundy_(horse)
p4867
V60
p4868
sVhttp://dbpedia.org/resource/Miss_France_(horse)
p4869
V59
p4870
sVhttp://dbpedia.org/resource/Super_Concorde
p4871
V60
p4872
sVhttp://dbpedia.org/resource/Aurelius_(horse)
p4873
V58
p4874
sVhttp://dbpedia.org/resource/Montjeu
p4875
V62
p4876
sVhttp://dbpedia.org/resource/Fastnet_Rock_(horse)
p4877
V57
p4878
sVhttp://dbpedia.org/resource/Nathaniel_(horse)
p4879
V65
p4880
sVhttp://dbpedia.org/resource/Ghostzapper
p4881
V65
p4882
sVhttp://dbpedia.org/resource/Boletus_rubriceps
p4883
V29
p4884
sVhttp://dbpedia.org/resource/Bat
p4885
V36
p4886
sVhttp://dbpedia.org/resource/Akiyda
p4887
V60
p4888
sVhttp://dbpedia.org/resource/Limestone_Lad
p4889
V57
p4890
sVhttp://dbpedia.org/resource/My_Miss_Aurelia
p4891
V64
p4892
sVhttp://dbpedia.org/resource/Mister_Baileys
p4893
V58
p4894
sVhttp://dbpedia.org/resource/Equisetum_californicum
p4895
V74
p4896
sVhttp://dbpedia.org/resource/Mycena_californiensis
p4897
V35
p4898
sVhttp://dbpedia.org/resource/Lettuce
p4899
V82
p4900
sVhttp://dbpedia.org/resource/Jammed_Lovely
p4901
V30
p4902
sVhttp://dbpedia.org/resource/Zingel_asper
p4903
V33
p4904
sVhttp://dbpedia.org/resource/Among_Men
p4905
V58
p4906
sVhttp://dbpedia.org/resource/Lady's_Secret
p4907
V64
p4908
sVhttp://dbpedia.org/resource/Kingston_Hill_(horse)
p4909
V64
p4910
sVhttp://dbpedia.org/resource/Minster_Son
p4911
V58
p4912
sVhttp://dbpedia.org/resource/Cicero_(horse)
p4913
V62
p4914
sVhttp://dbpedia.org/resource/Environment_Friend
p4915
V58
p4916
sVhttp://dbpedia.org/resource/Cyllene_(horse)
p4917
V64
p4918
sVhttp://dbpedia.org/resource/Large_cactus_finch
p4919
V38
p4920
sVhttp://dbpedia.org/resource/Megaponera
p4921
V35
p4922
sVhttp://dbpedia.org/resource/Plate-billed_mountain_toucan
p4923
V38
p4924
sVhttp://dbpedia.org/resource/Diamond_Shoal
p4925
V61
p4926
sVhttp://dbpedia.org/resource/Mediterranean_spearfish
p4927
V39
p4928
sVhttp://dbpedia.org/resource/Platanthera_holmboei
p4929
V39
p4930
sVhttp://dbpedia.org/resource/Aureole_(horse)
p4931
V60
p4932
sVhttp://dbpedia.org/resource/Chenopodium_album
p4933
V59
p4934
sVhttp://dbpedia.org/resource/L'Abbesse_de_Jouarre
p4935
V54
p4936
sVhttp://dbpedia.org/resource/Grey_Momus
p4937
V60
p4938
sVhttp://dbpedia.org/resource/Sliteye_shark
p4939
V42
p4940
sVhttp://dbpedia.org/resource/La_Lorgnette
p4941
V33
p4942
sVhttp://dbpedia.org/resource/Integral_(horse)
p4943
V65
p4944
sVhttp://dbpedia.org/resource/Phaius_tancarvilleae
p4945
V31
p4946
sVhttp://dbpedia.org/resource/Quality_Road
p4947
V58
p4948
sVhttp://dbpedia.org/resource/Manado_(horse)
p4949
V57
p4950
sVhttp://dbpedia.org/resource/Cabbage
p4951
V75
p4952
sVhttp://dbpedia.org/resource/Orchis_galilaea
p4953
V41
p4954
sVhttp://dbpedia.org/resource/Buckpasser
p4955
V66
p4956
sVhttp://dbpedia.org/resource/Variety_Club_(horse)
p4957
V54
p4958
sVhttp://dbpedia.org/resource/Mysterious_(horse)
p4959
V56
p4960
sVhttp://dbpedia.org/resource/Ajax_(horse)
p4961
V57
p4962
sVhttp://dbpedia.org/resource/Noronha_skink
p4963
V32
p4964
sVhttp://dbpedia.org/resource/Mycena_haematopus
p4965
V40
p4966
sVhttp://dbpedia.org/resource/Falbrav
p4967
V62
p4968
sVhttp://dbpedia.org/resource/Bel_Bolide
p4969
V59
p4970
sVhttp://dbpedia.org/resource/My_Juliet
p4971
V60
p4972
sVhttp://dbpedia.org/resource/Matilda_(horse)
p4973
V59
p4974
sVhttp://dbpedia.org/resource/Stanerra
p4975
V60
p4976
sVhttp://dbpedia.org/resource/Tmesisternus_adspersus
p4977
V28
p4978
sVhttp://dbpedia.org/resource/Charlottown
p4979
V60
p4980
sVhttp://dbpedia.org/resource/Sakhee
p4981
V67
p4982
sVhttp://dbpedia.org/resource/Stay_Thirsty
p4983
V62
p4984
sVhttp://dbpedia.org/resource/Cotherstone_(horse)
p4985
V61
p4986
sVhttp://dbpedia.org/resource/Oplurus_grandidieri
p4987
V30
p4988
sVhttp://dbpedia.org/resource/Hector's_dolphin
p4989
V48
p4990
sVhttp://dbpedia.org/resource/Hypnale_nepa
p4991
V32
p4992
sVhttp://dbpedia.org/resource/A_Gleam
p4993
V62
p4994
sVhttp://dbpedia.org/resource/Pachypasa_otus
p4995
V31
p4996
sVhttp://dbpedia.org/resource/Sun_Stream
p4997
V58
p4998
sVhttp://dbpedia.org/resource/Lichine_(horse)
p4999
V60
p5000
sVhttp://dbpedia.org/resource/Tiger
p5001
V56
p5002
sVhttp://dbpedia.org/resource/Footstepsinthesand
p5003
V63
p5004
sVhttp://dbpedia.org/resource/Humble_Duty
p5005
V62
p5006
sVhttp://dbpedia.org/resource/Iris_histrio
p5007
V39
p5008
sVhttp://dbpedia.org/resource/Falsetto_(horse)
p5009
V59
p5010
sVhttp://dbpedia.org/resource/Parasol_(horse)
p5011
V60
p5012
sVhttp://dbpedia.org/resource/Raven's_Pass
p5013
V60
p5014
sVhttp://dbpedia.org/resource/Gold_Strike_(horse)
p5015
V32
p5016
sVhttp://dbpedia.org/resource/To-Agori-Mou
p5017
V57
p5018
sVhttp://dbpedia.org/resource/Sudan_cheetah
p5019
V31
p5020
sVhttp://dbpedia.org/resource/Psilocybe_caerulipes
p5021
V34
p5022
sVhttp://dbpedia.org/resource/Halothamnus_iliensis
p5023
V26
p5024
sVhttp://dbpedia.org/resource/Codex_(horse)
p5025
V58
p5026
sVhttp://dbpedia.org/resource/Cape_Blanco_(horse)
p5027
V33
p5028
sVhttp://dbpedia.org/resource/Vagrant_(horse)
p5029
V61
p5030
sVhttp://dbpedia.org/resource/Rubens_(horse)
p5031
V59
p5032
sVhttp://dbpedia.org/resource/Pastoral_Pursuits
p5033
V59
p5034
sVhttp://dbpedia.org/resource/Was_(horse)
p5035
V61
p5036
sVhttp://dbpedia.org/resource/Morchella_conica
p5037
V32
p5038
sVhttp://dbpedia.org/resource/Calvatia_sculpta
p5039
V34
p5040
sVhttp://dbpedia.org/resource/Persian_fallow_deer
p5041
V41
p5042
sVhttp://dbpedia.org/resource/Whobegotyou
p5043
V59
p5044
sVhttp://dbpedia.org/resource/Newmill_(horse)
p5045
V57
p5046
sVhttp://dbpedia.org/resource/See_More_Business
p5047
V55
p5048
sVhttp://dbpedia.org/resource/Left_Bank_(horse)
p5049
V58
p5050
sVhttp://dbpedia.org/resource/Blink_Bonny
p5051
V57
p5052
sVhttp://dbpedia.org/resource/Dubai_Millennium
p5053
V67
p5054
sVhttp://dbpedia.org/resource/Hyacinth_macaw
p5055
V46
p5056
sVhttp://dbpedia.org/resource/Royal_Orbit
p5057
V59
p5058
sVhttp://dbpedia.org/resource/The_Wonder_(horse)
p5059
V58
p5060
sVhttp://dbpedia.org/resource/American_badger
p5061
V44
p5062
sVhttp://dbpedia.org/resource/Ardross_(horse)
p5063
V62
p5064
sVhttp://dbpedia.org/resource/Solinus_(horse)
p5065
V58
p5066
sVhttp://dbpedia.org/resource/Visayan_warty_pig
p5067
V42
p5068
sVhttp://dbpedia.org/resource/Victorian_(horse)
p5069
V59
p5070
sVhttp://dbpedia.org/resource/Macaroni_(horse)
p5071
V58
p5072
sVhttp://dbpedia.org/resource/Egyptian_cobra
p5073
V41
p5074
sVhttp://dbpedia.org/resource/Symboli_Kris_S
p5075
V62
p5076
sVhttp://dbpedia.org/resource/Asian_badger
p5077
V43
p5078
sVhttp://dbpedia.org/resource/Halothamnus_somalensis
p5079
V26
p5080
sVhttp://dbpedia.org/resource/Gallant_Fox
p5081
V63
p5082
sVhttp://dbpedia.org/resource/Cry_of_Truth
p5083
V54
p5084
sVhttp://dbpedia.org/resource/Music_(horse)
p5085
V57
p5086
sVhttp://dbpedia.org/resource/Glad_Rags
p5087
V56
p5088
sVhttp://dbpedia.org/resource/Olwyn
p5089
V56
p5090
sVhttp://dbpedia.org/resource/Kurifuji
p5091
V59
p5092
sVhttp://dbpedia.org/resource/Hebeloma_gigaspermum
p5093
V29
p5094
sVhttp://dbpedia.org/resource/Adzuki_bean
p5095
V76
p5096
sVhttp://dbpedia.org/resource/Grand_Parade_(horse)
p5097
V63
p5098
sVhttp://dbpedia.org/resource/Red-shouldered_hawk
p5099
V31
p5100
sVhttp://dbpedia.org/resource/Riddlesworth_(horse)
p5101
V58
p5102
sVhttp://dbpedia.org/resource/Lianga_(horse)
p5103
V57
p5104
sVhttp://dbpedia.org/resource/Golden_Opinion
p5105
V60
p5106
sVhttp://dbpedia.org/resource/Parasphaerichthys_ocellatus
p5107
V30
p5108
sVhttp://dbpedia.org/resource/Prince_Bishop_(horse)
p5109
V59
p5110
sVhttp://dbpedia.org/resource/Lovely_Maria
p5111
V58
p5112
sVhttp://dbpedia.org/resource/Cortinarius_infractus
p5113
V33
p5114
sVhttp://dbpedia.org/resource/American_hog-nosed_skunk
p5115
V40
p5116
sVhttp://dbpedia.org/resource/Hold_That_Tiger_(horse)
p5117
V66
p5118
sVhttp://dbpedia.org/resource/Solemia
p5119
V61
p5120
sVhttp://dbpedia.org/resource/La_Fleche_(horse)
p5121
V60
p5122
sVhttp://dbpedia.org/resource/Darsi_(horse)
p5123
V59
p5124
sVhttp://dbpedia.org/resource/Donovan_(horse)
p5125
V60
p5126
sVhttp://dbpedia.org/resource/He's_A_Smoothie
p5127
V64
p5128
sVhttp://dbpedia.org/resource/Wheel_of_Fortune_(horse)
p5129
V59
p5130
sVhttp://dbpedia.org/resource/Azamour
p5131
V61
p5132
sVhttp://dbpedia.org/resource/Reverence_(horse)
p5133
V58
p5134
sVhttp://dbpedia.org/resource/Jamaican_greater_funnel-eared_bat
p5135
V26
p5136
sVhttp://dbpedia.org/resource/Halothamnus_subaphyllus
p5137
V29
p5138
sVhttp://dbpedia.org/resource/Bornean_shrew
p5139
V26
p5140
sVhttp://dbpedia.org/resource/Mycena_leptocephala
p5141
V32
p5142
sVhttp://dbpedia.org/resource/Dr_Devious
p5143
V65
p5144
sVhttp://dbpedia.org/resource/Shadayid
p5145
V59
p5146
sVhttp://dbpedia.org/resource/Perideridia_oregana
p5147
V47
p5148
sVhttp://dbpedia.org/resource/Pivotal_(horse)
p5149
V57
p5150
sVhttp://dbpedia.org/resource/Shadeed
p5151
V60
p5152
sVhttp://dbpedia.org/resource/Cadland
p5153
V58
p5154
sVhttp://dbpedia.org/resource/Flying_Fox_(horse)
p5155
V67
p5156
sVhttp://dbpedia.org/resource/Trigo_(horse)
p5157
V60
p5158
sVhttp://dbpedia.org/resource/Just_A_Way
p5159
V62
p5160
sVhttp://dbpedia.org/resource/Nedawi
p5161
V63
p5162
sVhttp://dbpedia.org/resource/Jezki
p5163
V60
p5164
sVhttp://dbpedia.org/resource/Indian_Charlie
p5165
V58
p5166
sVhttp://dbpedia.org/resource/St_Nicholas_Abbey_(horse)
p5167
V64
p5168
sVhttp://dbpedia.org/resource/Dark_Star_(horse)
p5169
V60
p5170
sVhttp://dbpedia.org/resource/Viola_adunca
p5171
V36
p5172
sVhttp://dbpedia.org/resource/Real_Quiet
p5173
V63
p5174
sVhttp://dbpedia.org/resource/Exceller
p5175
V63
p5176
sVhttp://dbpedia.org/resource/Senegal_jack
p5177
V30
p5178
sVhttp://dbpedia.org/resource/Reference_Point_(horse)
p5179
V66
p5180
sVhttp://dbpedia.org/resource/Drill_(animal)
p5181
V46
p5182
sVhttp://dbpedia.org/resource/Daikon
p5183
V70
p5184
sVhttp://dbpedia.org/resource/Passiflora_morifolia
p5185
V33
p5186
sVhttp://dbpedia.org/resource/Colombian_tinamou
p5187
V33
p5188
sVhttp://dbpedia.org/resource/Spectacular_Bid
p5189
V60
p5190
sVhttp://dbpedia.org/resource/Blue_Canari
p5191
V57
p5192
sVhttp://dbpedia.org/resource/Salvia_hispanica
p5193
V80
p5194
sVhttp://dbpedia.org/resource/Sooty_falcon
p5195
V50
p5196
sVhttp://dbpedia.org/resource/Kordofan_giraffe
p5197
V38
p5198
sVhttp://dbpedia.org/resource/Elytrigia
p5199
V35
p5200
sVhttp://dbpedia.org/resource/One_in_a_Million_(horse)
p5201
V57
p5202
sVhttp://dbpedia.org/resource/Borgia_(horse)
p5203
V62
p5204
sVhttp://dbpedia.org/resource/Candy_Spots
p5205
V53
p5206
sVhttp://dbpedia.org/resource/Dunkirk_(American_horse)
p5207
V56
p5208
sVhttp://dbpedia.org/resource/Synodontis_aterrimus
p5209
V32
p5210
sVhttp://dbpedia.org/resource/Pearl_Diver
p5211
V60
p5212
sVhttp://dbpedia.org/resource/Bull_Dog_(horse)
p5213
V65
p5214
sVhttp://dbpedia.org/resource/Pussy_(horse)
p5215
V56
p5216
sVhttp://dbpedia.org/resource/Reveller
p5217
V58
p5218
sVhttp://dbpedia.org/resource/Anabaa
p5219
V60
p5220
sVhttp://dbpedia.org/resource/Bold_Lad_(IRE)
p5221
V60
p5222
sVhttp://dbpedia.org/resource/Rock_kestrel
p5223
V34
p5224
sVhttp://dbpedia.org/resource/Pas_de_Reponse
p5225
V62
p5226
sVhttp://dbpedia.org/resource/Dog
p5227
V56
p5228
sVhttp://dbpedia.org/resource/Geckoella_triedrus
p5229
V30
p5230
sVhttp://dbpedia.org/resource/Brown_meagre
p5231
V31
p5232
sVhttp://dbpedia.org/resource/War_Admiral
p5233
V67
p5234
sVhttp://dbpedia.org/resource/Sweet_potato
p5235
V89
p5236
sVhttp://dbpedia.org/resource/Be_My_Guest_(horse)
p5237
V63
p5238
sVhttp://dbpedia.org/resource/Milligram_(horse)
p5239
V60
p5240
sVhttp://dbpedia.org/resource/Winkipop
p5241
V58
p5242
sVhttp://dbpedia.org/resource/Margrave_(horse)
p5243
V60
p5244
sVhttp://dbpedia.org/resource/Buena_Vista_(horse)
p5245
V62
p5246
sVhttp://dbpedia.org/resource/Wheat
p5247
V84
p5248
sVhttp://dbpedia.org/resource/Pucker_Up_(horse)
p5249
V33
p5250
sVhttp://dbpedia.org/resource/Destiny_(horse)
p5251
V58
p5252
sVhttp://dbpedia.org/resource/Diplodus
p5253
V39
p5254
sVhttp://dbpedia.org/resource/Kauai_King
p5255
V58
p5256
sVhttp://dbpedia.org/resource/Hoist_The_King
p5257
V56
p5258
sVhttp://dbpedia.org/resource/Argentine_torpedo
p5259
V26
p5260
sVhttp://dbpedia.org/resource/Oxygen_(horse)
p5261
V59
p5262
sVhttp://dbpedia.org/resource/Silvio_(horse)
p5263
V61
p5264
sVhttp://dbpedia.org/resource/Homo_floresiensis
p5265
V47
p5266
sVhttp://dbpedia.org/resource/True_North_III
p5267
V59
p5268
sVhttp://dbpedia.org/resource/Baden-Baden_(horse)
p5269
V60
p5270
sVhttp://dbpedia.org/resource/Chanteur
p5271
V58
p5272
sVhttp://dbpedia.org/resource/Fleet_(horse)
p5273
V55
p5274
sVhttp://dbpedia.org/resource/Reigh_Count
p5275
V62
p5276
sVhttp://dbpedia.org/resource/Royal_Anthem_(horse)
p5277
V63
p5278
sVhttp://dbpedia.org/resource/Charm_Spirit
p5279
V57
p5280
sVhttp://dbpedia.org/resource/Mr_Mulligan_(horse)
p5281
V56
p5282
sVhttp://dbpedia.org/resource/Ela-Mana-Mou
p5283
V57
p5284
sVhttp://dbpedia.org/resource/Danedream
p5285
V64
p5286
sVhttp://dbpedia.org/resource/Alpaca
p5287
V46
p5288
sVhttp://dbpedia.org/resource/Durtal_(horse)
p5289
V59
p5290
sVhttp://dbpedia.org/resource/Cole_Harden
p5291
V57
p5292
sVhttp://dbpedia.org/resource/Bikala
p5293
V59
p5294
sVhttp://dbpedia.org/resource/Forest_cobra
p5295
V30
p5296
sVhttp://dbpedia.org/resource/Crow_(horse)
p5297
V59
p5298
sVhttp://dbpedia.org/resource/Duke_of_Marmalade
p5299
V61
p5300
sVhttp://dbpedia.org/resource/Scorpion_(horse)
p5301
V59
p5302
sVhttp://dbpedia.org/resource/Formosa_(horse)
p5303
V59
p5304
sVhttp://dbpedia.org/resource/Shortfin_smooth_lanternshark
p5305
V28
p5306
sVhttp://dbpedia.org/resource/Cyprinion_macrostomum
p5307
V32
p5308
sVhttp://dbpedia.org/resource/Choanomphalus_amauronius
p5309
V30
p5310
sVhttp://dbpedia.org/resource/Pindarrie
p5311
V63
p5312
sVhttp://dbpedia.org/resource/Dullahan_(horse)
p5313
V59
p5314
sVhttp://dbpedia.org/resource/Buru_racket-tail
p5315
V34
p5316
sVhttp://dbpedia.org/resource/Bold_Lad
p5317
V63
p5318
sVhttp://dbpedia.org/resource/Zamia_pygmaea
p5319
V34
p5320
sVhttp://dbpedia.org/resource/Deep_Impact_(horse)
p5321
V64
p5322
sVhttp://dbpedia.org/resource/Deep_Sensation
p5323
V56
p5324
sVhttp://dbpedia.org/resource/Tonalist
p5325
V62
p5326
sVhttp://dbpedia.org/resource/Polyozellus
p5327
V39
p5328
sVhttp://dbpedia.org/resource/Cochineal
p5329
V42
p5330
sVhttp://dbpedia.org/resource/Elmaamul
p5331
V62
p5332
sVhttp://dbpedia.org/resource/African_buffalo
p5333
V53
p5334
sVhttp://dbpedia.org/resource/Passiflora_edulis
p5335
V59
p5336
sVhttp://dbpedia.org/resource/Time_Charter
p5337
V59
p5338
sVhttp://dbpedia.org/resource/Our_Babu
p5339
V58
p5340
sVhttp://dbpedia.org/resource/Northern_Trick
p5341
V61
p5342
sVhttp://dbpedia.org/resource/Jacinth_(horse)
p5343
V60
p5344
sVhttp://dbpedia.org/resource/Mycena_overholtsii
p5345
V37
p5346
sVhttp://dbpedia.org/resource/Karakontie
p5347
V59
p5348
sVhttp://dbpedia.org/resource/Psilocybe_yungensis
p5349
V38
p5350
sVhttp://dbpedia.org/resource/Shotover_(horse)
p5351
V61
p5352
sVhttp://dbpedia.org/resource/Continent_(horse)
p5353
V64
p5354
sVhttp://dbpedia.org/resource/Terimon
p5355
V61
p5356
sVhttp://dbpedia.org/resource/Dickens_Hill_(horse)
p5357
V57
p5358
sVhttp://dbpedia.org/resource/Maybe_(horse)
p5359
V64
p5360
sVhttp://dbpedia.org/resource/Sinndar
p5361
V65
p5362
sVhttp://dbpedia.org/resource/Kizuna_(horse)
p5363
V61
p5364
sVhttp://dbpedia.org/resource/Ivanjica_(horse)
p5365
V59
p5366
sVhttp://dbpedia.org/resource/Pig
p5367
V54
p5368
sVhttp://dbpedia.org/resource/Brazil_nut
p5369
V109
p5370
sVhttp://dbpedia.org/resource/Kampira_Falls_frog
p5371
V32
p5372
sVhttp://dbpedia.org/resource/Workforce_(horse)
p5373
V37
p5374
sVhttp://dbpedia.org/resource/Harlem_Rocker
p5375
V59
p5376
sVhttp://dbpedia.org/resource/Little_Wolf_(horse)
p5377
V59
p5378
sVhttp://dbpedia.org/resource/O'Shaughnessy's_chameleon
p5379
V33
p5380
sVhttp://dbpedia.org/resource/Niche_(horse)
p5381
V62
p5382
sVhttp://dbpedia.org/resource/Jackfruit
p5383
V64
p5384
sVhttp://dbpedia.org/resource/Cyclamen_persicum
p5385
V37
p5386
sVhttp://dbpedia.org/resource/Outstandingly
p5387
V61
p5388
sVhttp://dbpedia.org/resource/Tyrant_(horse)
p5389
V56
p5390
sVhttp://dbpedia.org/resource/Summer_Squall
p5391
V60
p5392
sVhttp://dbpedia.org/resource/Micromeria
p5393
V36
p5394
sVhttp://dbpedia.org/resource/Sanedtki
p5395
V58
p5396
sVhttp://dbpedia.org/resource/Boston_Harbor_(horse)
p5397
V63
p5398
sVhttp://dbpedia.org/resource/Jack_Hobbs_(horse)
p5399
V63
p5400
sVhttp://dbpedia.org/resource/Russula_brevipes
p5401
V39
p5402
sVhttp://dbpedia.org/resource/Sire_de_Grugy
p5403
V58
p5404
sVhttp://dbpedia.org/resource/Arctic_Cosmos
p5405
V57
p5406
sVhttp://dbpedia.org/resource/Sea_the_Stars
p5407
V63
p5408
sVhttp://dbpedia.org/resource/Pastille_(horse)
p5409
V58
p5410
sVhttp://dbpedia.org/resource/Capote_(horse)
p5411
V64
p5412
sVhttp://dbpedia.org/resource/Bienotherium
p5413
V30
p5414
sVhttp://dbpedia.org/resource/Denman_(horse)
p5415
V64
p5416
sVhttp://dbpedia.org/resource/Ruta_chalepensis
p5417
V32
p5418
sVhttp://dbpedia.org/resource/Bering_(horse)
p5419
V64
p5420
sVhttp://dbpedia.org/resource/Eastern_yellow-billed_hornbill
p5421
V37
p5422
sVhttp://dbpedia.org/resource/Personal_Ensign
p5423
V66
p5424
sVhttp://dbpedia.org/resource/Nomadic_Way
p5425
V58
p5426
sVhttp://dbpedia.org/resource/Whisker_(horse)
p5427
V61
p5428
sVhttp://dbpedia.org/resource/Eswarah
p5429
V61
p5430
sVhttp://dbpedia.org/resource/Sadeem
p5431
V60
p5432
sVhttp://dbpedia.org/resource/Taghrooda
p5433
V62
p5434
sVhttp://dbpedia.org/resource/Scalloped_hammerhead
p5435
V55
p5436
sVhttp://dbpedia.org/resource/Long-tailed_widowbird
p5437
V32
p5438
sVhttp://dbpedia.org/resource/Eager_(horse)
p5439
V57
p5440
sVhttp://dbpedia.org/resource/Zafonic
p5441
V63
p5442
sVhttp://dbpedia.org/resource/Caracolero
p5443
V59
p5444
sVhttp://dbpedia.org/resource/Narrow-striped_mongoose
p5445
V42
p5446
sVhttp://dbpedia.org/resource/Koala
p5447
V57
p5448
sVhttp://dbpedia.org/resource/Peniocereus_striatus
p5449
V28
p5450
sVhttp://dbpedia.org/resource/Electrocutionist
p5451
V60
p5452
sVhttp://dbpedia.org/resource/Celestial_Storm
p5453
V58
p5454
sVhttp://dbpedia.org/resource/Daylami
p5455
V63
p5456
sVhttp://dbpedia.org/resource/Common_myna
p5457
V54
p5458
sVhttp://dbpedia.org/resource/Mate_(horse)
p5459
V56
p5460
sVhttp://dbpedia.org/resource/The_Panther
p5461
V61
p5462
sVhttp://dbpedia.org/resource/Queensway_(horse)
p5463
V58
p5464
sVhttp://dbpedia.org/resource/Bidens_populifolia
p5465
V31
p5466
sVhttp://dbpedia.org/resource/Cauliflower
p5467
V65
p5468
sVhttp://dbpedia.org/resource/Ophryacus_undulatus
p5469
V33
p5470
sVhttp://dbpedia.org/resource/Synodontis_thamalakanensis
p5471
V33
p5472
sVhttp://dbpedia.org/resource/Arab_(horse)
p5473
V58
p5474
sVhttp://dbpedia.org/resource/Pharis
p5475
V63
p5476
sVhttp://dbpedia.org/resource/Euphorbia_celastroides
p5477
V32
p5478
sVhttp://dbpedia.org/resource/Magnolia_nilagirica
p5479
V29
p5480
sVhttp://dbpedia.org/resource/Maize
p5481
V95
p5482
sVhttp://dbpedia.org/resource/Call_Boy_(horse)
p5483
V62
p5484
sVhttp://dbpedia.org/resource/King_Tom_(horse)
p5485
V59
p5486
sVhttp://dbpedia.org/resource/Blandford_(horse)
p5487
V63
p5488
sVhttp://dbpedia.org/resource/Lyric_Fantasy
p5489
V61
p5490
sVhttp://dbpedia.org/resource/Never_Too_Late_(horse)
p5491
V60
p5492
sVhttp://dbpedia.org/resource/Synodontis_unicolor
p5493
V32
p5494
sVhttp://dbpedia.org/resource/Ballabriggs
p5495
V60
p5496
sVhttp://dbpedia.org/resource/Stockwell_(horse)
p5497
V62
p5498
sVhttp://dbpedia.org/resource/Mizdirection
p5499
V60
p5500
sVhttp://dbpedia.org/resource/Purple-throated_cotinga
p5501
V31
p5502
sVhttp://dbpedia.org/resource/Rufous_hornero
p5503
V35
p5504
sVhttp://dbpedia.org/resource/Metasequoia_glyptostroboides
p5505
V47
p5506
sVhttp://dbpedia.org/resource/Sphodromantis_viridis
p5507
V34
p5508
sVhttp://dbpedia.org/resource/Take_A_Reef
p5509
V56
p5510
sVhttp://dbpedia.org/resource/Gay_Gallanta
p5511
V66
p5512
sVhttp://dbpedia.org/resource/Pineapple
p5513
V62
p5514
sVhttp://dbpedia.org/resource/Silver_Patriarch
p5515
V59
p5516
sVhttp://dbpedia.org/resource/Lemon_Souffle
p5517
V62
p5518
sVhttp://dbpedia.org/resource/Scale-rayed_wrasse
p5519
V30
p5520
sVhttp://dbpedia.org/resource/No_Nay_Never
p5521
V58
p5522
sVhttp://dbpedia.org/resource/Spendthrift_(horse)
p5523
V62
p5524
sVhttp://dbpedia.org/resource/Crotalus_tortugensis
p5525
V35
p5526
sVhttp://dbpedia.org/resource/Paradox_(horse)
p5527
V59
p5528
sVhttp://dbpedia.org/resource/Harayir
p5529
V63
p5530
sVhttp://dbpedia.org/resource/Reine_de_Saba
p5531
V59
p5532
sVhttp://dbpedia.org/resource/Personality_(horse)
p5533
V59
p5534
sVhttp://dbpedia.org/resource/Midway_Lady
p5535
V60
p5536
sVhttp://dbpedia.org/resource/Araafa
p5537
V58
p5538
sVhttp://dbpedia.org/resource/Saaristattus
p5539
V32
p5540
sVhttp://dbpedia.org/resource/Tolypeutes
p5541
V34
p5542
sVhttp://dbpedia.org/resource/Divine_Proportions
p5543
V64
p5544
sVhttp://dbpedia.org/resource/Eucalyptus_todtiana
p5545
V35
p5546
sVhttp://dbpedia.org/resource/Dunaliella
p5547
V35
p5548
sVhttp://dbpedia.org/resource/Hygrophorus_bakerensis
p5549
V35
p5550
sVhttp://dbpedia.org/resource/Date_palm
p5551
V88
p5552
sVhttp://dbpedia.org/resource/Chilean_jack_mackerel
p5553
V34
p5554
sVhttp://dbpedia.org/resource/Straight_Deal
p5555
V59
p5556
sVhttp://dbpedia.org/resource/Coriander
p5557
V62
p5558
sVhttp://dbpedia.org/resource/Tourbillon_(horse)
p5559
V63
p5560
sVhttp://dbpedia.org/resource/Red-legged_thrush
p5561
V31
p5562
sVhttp://dbpedia.org/resource/Distant_Relative_(horse)
p5563
V57
p5564
sVhttp://dbpedia.org/resource/Philippine_flying_lemur
p5565
V42
p5566
sVhttp://dbpedia.org/resource/Morus_nigra
p5567
V59
p5568
sVhttp://dbpedia.org/resource/Sea_Pigeon
p5569
V57
p5570
sVhttp://dbpedia.org/resource/Asplenium_pinnatifidum
p5571
V33
p5572
sVhttp://dbpedia.org/resource/Premonition_(horse)
p5573
V57
p5574
sVhttp://dbpedia.org/resource/North_Atlantic_right_whale
p5575
V51
p5576
sVhttp://dbpedia.org/resource/Shaamit
p5577
V64
p5578
sVhttp://dbpedia.org/resource/Puerto_Rican_sharp-shinned_hawk
p5579
V31
p5580
sVhttp://dbpedia.org/resource/Rumplestiltskin_(horse)
p5581
V66
p5582
sVhttp://dbpedia.org/resource/North_Island_k\u014dkako
p5583
V33
p5584
sVhttp://dbpedia.org/resource/Anteater
p5585
V38
p5586
sVhttp://dbpedia.org/resource/Attila_(horse)
p5587
V58
p5588
sVhttp://dbpedia.org/resource/Dylan_Thomas_(horse)
p5589
V62
p5590
sVhttp://dbpedia.org/resource/David_Junior
p5591
V61
p5592
sVhttp://dbpedia.org/resource/Balthazar_King
p5593
V52
p5594
sVhttp://dbpedia.org/resource/Gunner_B
p5595
V58
p5596
sVhttp://dbpedia.org/resource/Jaazeiro
p5597
V58
p5598
sVhttp://dbpedia.org/resource/Dream_Well_(horse)
p5599
V64
p5600
sVhttp://dbpedia.org/resource/Lord_Howe_parakeet
p5601
V33
p5602
sVhttp://dbpedia.org/resource/Sheep
p5603
V59
p5604
sVhttp://dbpedia.org/resource/Green_swordtail
p5605
V46
p5606
sVhttp://dbpedia.org/resource/Prairie_Bayou
p5607
V64
p5608
sVhttp://dbpedia.org/resource/Island_Sands
p5609
V62
p5610
sVhttp://dbpedia.org/resource/Spearmint_(horse)
p5611
V62
p5612
sVhttp://dbpedia.org/resource/Riva_Ridge
p5613
V65
p5614
sVhttp://dbpedia.org/resource/Golden-plumed_parakeet
p5615
V31
p5616
sVhttp://dbpedia.org/resource/Citation_(horse)
p5617
V66
p5618
sVhttp://dbpedia.org/resource/African_Story
p5619
V63
p5620
sVhttp://dbpedia.org/resource/Bollin_Eric
p5621
V59
p5622
sVhttp://dbpedia.org/resource/Eggplant
p5623
V84
p5624
sVhttp://dbpedia.org/resource/Bare-legged_owl
p5625
V41
p5626
sVhttp://dbpedia.org/resource/Sadler's_Wells_(horse)
p5627
V62
p5628
sVhttp://dbpedia.org/resource/Beagle
p5629
V49
p5630
sVhttp://dbpedia.org/resource/Plucky_Liege
p5631
V58
p5632
sVhttp://dbpedia.org/resource/Cape_Verdi
p5633
V63
p5634
sVhttp://dbpedia.org/resource/Lord_Clifden
p5635
V62
p5636
sVhttp://dbpedia.org/resource/Eastern_smooth_frog
p5637
V33
p5638
sVhttp://dbpedia.org/resource/Able_Friend
p5639
V59
p5640
sVhttp://dbpedia.org/resource/Wince
p5641
V62
p5642
sVhttp://dbpedia.org/resource/Rule_of_Law_(horse)
p5643
V65
p5644
sVhttp://dbpedia.org/resource/Lesser_florican
p5645
V45
p5646
sVhttp://dbpedia.org/resource/Crucifix_(horse)
p5647
V61
p5648
sVhttp://dbpedia.org/resource/Palace_Malice
p5649
V59
p5650
sVhttp://dbpedia.org/resource/Andover_(horse)
p5651
V59
p5652
sVhttp://dbpedia.org/resource/Eurasian_blackcap
p5653
V48
p5654
sVhttp://dbpedia.org/resource/Untapable
p5655
V60
p5656
sVhttp://dbpedia.org/resource/Immortal_Verse
p5657
V58
p5658
sVhttp://dbpedia.org/resource/Mascarene_martin
p5659
V38
p5660
sVhttp://dbpedia.org/resource/Sunda_bulbul
p5661
V32
p5662
sVhttp://dbpedia.org/resource/Platanthera_grandiflora
p5663
V32
p5664
sVhttp://dbpedia.org/resource/Tristan_(horse)
p5665
V60
p5666
sVhttp://dbpedia.org/resource/Pearse's_mudskipper
p5667
V31
p5668
sVhttp://dbpedia.org/resource/Synodontis_caudovittatus
p5669
V32
p5670
sVhttp://dbpedia.org/resource/Al_Nasr_(horse)
p5671
V58
p5672
sVhttp://dbpedia.org/resource/War_Emblem
p5673
V59
p5674
sVhttp://dbpedia.org/resource/Encke_(horse)
p5675
V65
p5676
sVhttp://dbpedia.org/resource/Teddington_(horse)
p5677
V59
p5678
sVhttp://dbpedia.org/resource/Ambiorix_(horse)
p5679
V34
p5680
sVhttp://dbpedia.org/resource/Six_Perfections_(horse)
p5681
V63
p5682
sVhttp://dbpedia.org/resource/Ramonti
p5683
V61
p5684
sVhttp://dbpedia.org/resource/Bardstown_(horse)
p5685
V60
p5686
sVhttp://dbpedia.org/resource/Amanita_crocea
p5687
V38
p5688
sVhttp://dbpedia.org/resource/White-winged_flufftail
p5689
V36
p5690
sVhttp://dbpedia.org/resource/Cue_Card_(horse)
p5691
V62
p5692
sVhttp://dbpedia.org/resource/Bharal
p5693
V47
p5694
sVhttp://dbpedia.org/resource/Arctium_lappa
p5695
V51
p5696
sVhttp://dbpedia.org/resource/Mandarin_orange
p5697
V68
p5698
sVhttp://dbpedia.org/resource/Epicuris
p5699
V61
p5700
sVhttp://dbpedia.org/resource/Brachypelma_albopilosum
p5701
V34
p5702
sVhttp://dbpedia.org/resource/Magician_(horse)
p5703
V64
p5704
sVhttp://dbpedia.org/resource/Only_for_Life
p5705
V57
p5706
sVhttp://dbpedia.org/resource/Doubledogdare
p5707
V33
p5708
sVhttp://dbpedia.org/resource/Points_Offthebench
p5709
V60
p5710
sVhttp://dbpedia.org/resource/Micrelytra_fossularum
p5711
V29
p5712
sVhttp://dbpedia.org/resource/Labrisomus_dendriticus
p5713
V32
p5714
sVhttp://dbpedia.org/resource/Pleasant_Stage
p5715
V60
p5716
sVhttp://dbpedia.org/resource/Black_Tarquin
p5717
V61
p5718
sVhttp://dbpedia.org/resource/Bourret's_box_turtle
p5719
V36
p5720
sVhttp://dbpedia.org/resource/Exclusive_(horse)
p5721
V60
p5722
sVhttp://dbpedia.org/resource/Vicia_faba
p5723
V85
p5724
sVhttp://dbpedia.org/resource/Shakapour
p5725
V60
p5726
sVhttp://dbpedia.org/resource/Apalachee_(horse)
p5727
V63
p5728
sVhttp://dbpedia.org/resource/Cortinarius_purpurascens
p5729
V33
p5730
sVhttp://dbpedia.org/resource/Abernant_(horse)
p5731
V62
p5732
sVhttp://dbpedia.org/resource/Sable_antelope
p5733
V49
p5734
sVhttp://dbpedia.org/resource/Golden_Lilac
p5735
V59
p5736
sVhttp://dbpedia.org/resource/Reliable_Man
p5737
V57
p5738
sVhttp://dbpedia.org/resource/Pristiophorus_nancyae
p5739
V31
p5740
sVhttp://dbpedia.org/resource/Storm_Bird
p5741
V63
p5742
sVhttp://dbpedia.org/resource/Cloonlara_(horse)
p5743
V57
p5744
sVhttp://dbpedia.org/resource/Certify_(horse)
p5745
V64
p5746
sVhttp://dbpedia.org/resource/The_Baron_(horse)
p5747
V57
p5748
sVhttp://dbpedia.org/resource/Maned_owl
p5749
V34
p5750
sVhttp://dbpedia.org/resource/Neva_(horse)
p5751
V53
p5752
sVhttp://dbpedia.org/resource/Urospermum_picroides
p5753
V34
p5754
sVhttp://dbpedia.org/resource/Chital
p5755
V49
p5756
sVhttp://dbpedia.org/resource/Charismatic_(horse)
p5757
V63
p5758
sVhttp://dbpedia.org/resource/Elusive_Wave
p5759
V59
p5760
sVhttp://dbpedia.org/resource/Grey_long-eared_bat
p5761
V39
p5762
sVhttp://dbpedia.org/resource/Yeats_(horse)
p5763
V61
p5764
sVhttp://dbpedia.org/resource/Volksraad_(horse)
p5765
V27
p5766
sVhttp://dbpedia.org/resource/Knigsstuhl_(horse)
p5767
V53
p5768
sVhttp://dbpedia.org/resource/Bob's_Return
p5769
V60
p5770
sVhttp://dbpedia.org/resource/Monk_parakeet
p5771
V48
p5772
sVhttp://dbpedia.org/resource/Proud_Spell
p5773
V61
p5774
sVhttp://dbpedia.org/resource/Calumma_gallus
p5775
V29
p5776
sVhttp://dbpedia.org/resource/English_Channel_(horse)
p5777
V63
p5778
sVhttp://dbpedia.org/resource/Cyptotrama_asprata
p5779
V32
p5780
sVhttp://dbpedia.org/resource/Norton's_Coin
p5781
V53
p5782
sVhttp://dbpedia.org/resource/Timber_Country
p5783
V61
p5784
sVhttp://dbpedia.org/resource/Mycena_acicula
p5785
V32
p5786
sVhttp://dbpedia.org/resource/Cozzene
p5787
V32
p5788
sVhttp://dbpedia.org/resource/Monarchos
p5789
V57
p5790
sVhttp://dbpedia.org/resource/Hill_Gail
p5791
V58
p5792
sVhttp://dbpedia.org/resource/Russian_Rhythm
p5793
V67
p5794
sVhttp://dbpedia.org/resource/Our_Conor
p5795
V61
p5796
sVhttp://dbpedia.org/resource/Dalakhani
p5797
V66
p5798
sVhttp://dbpedia.org/resource/Rough_Habit
p5799
V58
p5800
sVhttp://dbpedia.org/resource/Synodontis_koensis
p5801
V32
p5802
sVhttp://dbpedia.org/resource/Gorytus_(horse)
p5803
V60
p5804
sVhttp://dbpedia.org/resource/Barred_mudskipper
p5805
V32
p5806
sVhttp://dbpedia.org/resource/Hittite_Glory
p5807
V58
p5808
sVhttp://dbpedia.org/resource/Ajax_II
p5809
V61
p5810
sVhttp://dbpedia.org/resource/Porthidium_yucatanicum
p5811
V35
p5812
sVhttp://dbpedia.org/resource/Grandera
p5813
V64
p5814
sVhttp://dbpedia.org/resource/Slade_Power
p5815
V62
p5816
sVhttp://dbpedia.org/resource/Mutinus_borneensis
p5817
V32
p5818
sVhttp://dbpedia.org/resource/Musca_(genus)
p5819
V36
p5820
sVhttp://dbpedia.org/resource/Simply_Perfect
p5821
V59
p5822
sVhttp://dbpedia.org/resource/Mycena_aurantiomarginata
p5823
V38
p5824
sVhttp://dbpedia.org/resource/Maids_Causeway
p5825
V58
p5826
sVhttp://dbpedia.org/resource/Kisber_(horse)
p5827
V63
p5828
sVhttp://dbpedia.org/resource/Guadeloupe_amazon
p5829
V35
p5830
sVhttp://dbpedia.org/resource/Rule_Supreme
p5831
V58
p5832
sVhttp://dbpedia.org/resource/Pourparler_(horse)
p5833
V60
p5834
sVhttp://dbpedia.org/resource/Natroun
p5835
V59
p5836
sVhttp://dbpedia.org/resource/Nellie_Morse
p5837
V58
p5838
sVhttp://dbpedia.org/resource/Fiddle_Dancer_Boy
p5839
V58
p5840
sVhttp://dbpedia.org/resource/Claoxylon_australe
p5841
V29
p5842
sVhttp://dbpedia.org/resource/Aptostichus_stephencolberti
p5843
V35
p5844
sVhttp://dbpedia.org/resource/Ezzoud
p5845
V61
p5846
sVhttp://dbpedia.org/resource/Microsynodontis_batesii
p5847
V34
p5848
sVhttp://dbpedia.org/resource/Scratch_(horse)
p5849
V59
p5850
sVhttp://dbpedia.org/resource/Ridolfia_segetum
p5851
V33
p5852
sVhttp://dbpedia.org/resource/Rhacophorus_bimaculatus
p5853
V34
p5854
sVhttp://dbpedia.org/resource/Neoglyphea
p5855
V50
p5856
sVhttp://dbpedia.org/resource/Court_Martial_(horse)
p5857
V32
p5858
sVhttp://dbpedia.org/resource/North_Pacific_right_whale
p5859
V58
p5860
sVhttp://dbpedia.org/resource/Magnificient_Style
p5861
V61
p5862
sVhttp://dbpedia.org/resource/La_Farina
p5863
V56
p5864
sVhttp://dbpedia.org/resource/Small_tree_finch
p5865
V35
p5866
sVhttp://dbpedia.org/resource/Val_de_l'Orne
p5867
V57
p5868
sVhttp://dbpedia.org/resource/Smarty_Jones
p5869
V64
p5870
sVhttp://dbpedia.org/resource/Hainan_black_crested_gibbon
p5871
V45
p5872
sVhttp://dbpedia.org/resource/Synodontis_ocellifer
p5873
V33
p5874
sVhttp://dbpedia.org/resource/Synodontis_courteti
p5875
V32
p5876
sVhttp://dbpedia.org/resource/Mayano_Top_Gun
p5877
V61
p5878
sVhttp://dbpedia.org/resource/Shiitake
p5879
V54
p5880
sVhttp://dbpedia.org/resource/Misty_for_Me
p5881
V65
p5882
sVhttp://dbpedia.org/resource/Acclamation_(horse)
p5883
V59
p5884
sVhttp://dbpedia.org/resource/Orville_(horse)
p5885
V61
p5886
sVhttp://dbpedia.org/resource/Diselma
p5887
V33
p5888
sVhttp://dbpedia.org/resource/Miss_Jummy
p5889
V59
p5890
sVhttp://dbpedia.org/resource/Priam_(horse)
p5891
V62
p5892
sVhttp://dbpedia.org/resource/Laccaria_amethystina
p5893
V31
p5894
sVhttp://dbpedia.org/resource/Plum
p5895
V63
p5896
sVhttp://dbpedia.org/resource/Light_Shift
p5897
V60
p5898
sVhttp://dbpedia.org/resource/Signorinetta
p5899
V55
p5900
sVhttp://dbpedia.org/resource/Ectot
p5901
V58
p5902
sVhttp://dbpedia.org/resource/Fair_Trial
p5903
V32
p5904
sVhttp://dbpedia.org/resource/Prunus_armeniaca
p5905
V48
p5906
sVhttp://dbpedia.org/resource/Wajima_(horse)
p5907
V63
p5908
sVhttp://dbpedia.org/resource/West_Australian_(horse)
p5909
V62
p5910
sVhttp://dbpedia.org/resource/Papaver_umbonatum
p5911
V35
p5912
sVhttp://dbpedia.org/resource/Lactifluus_volemus
p5913
V48
p5914
sVhttp://dbpedia.org/resource/Niatross
p5915
V58
p5916
sVhttp://dbpedia.org/resource/Silver_Charm
p5917
V62
p5918
sVhttp://dbpedia.org/resource/Lentil
p5919
V78
p5920
sVhttp://dbpedia.org/resource/Bobs_Worth
p5921
V64
p5922
sVhttp://dbpedia.org/resource/Archduke_(horse)
p5923
V57
p5924
sVhttp://dbpedia.org/resource/Flatterer_(racehorse)
p5925
V56
p5926
sVhttp://dbpedia.org/resource/Swayne's_hartebeest
p5927
V45
p5928
sVhttp://dbpedia.org/resource/Humpback_whale
p5929
V67
p5930
sVhttp://dbpedia.org/resource/Mutafaweq
p5931
V58
p5932
sVhttp://dbpedia.org/resource/Little_Wonder_(horse)
p5933
V58
p5934
sVhttp://dbpedia.org/resource/Elvstroem
p5935
V59
p5936
sVhttp://dbpedia.org/resource/Double_Form
p5937
V57
p5938
sVhttp://dbpedia.org/resource/Storming_Home
p5939
V60
p5940
sVhttp://dbpedia.org/resource/Landing_Light
p5941
V60
p5942
sVhttp://dbpedia.org/resource/Isopachys_anguinoides
p5943
V30
p5944
sVhttp://dbpedia.org/resource/May_Hill_(horse)
p5945
V59
p5946
sVhttp://dbpedia.org/resource/Sharp-beaked_ground_finch
p5947
V35
p5948
sVhttp://dbpedia.org/resource/Sapphire-throated_hummingbird
p5949
V29
p5950
sVhttp://dbpedia.org/resource/Busted_(horse)
p5951
V56
p5952
sVhttp://dbpedia.org/resource/Perisama_bomplandii
p5953
V29
p5954
sVhttp://dbpedia.org/resource/Imperatrice
p5955
V55
p5956
sVhttp://dbpedia.org/resource/Leallah
p5957
V60
p5958
sVhttp://dbpedia.org/resource/Cat
p5959
V56
p5960
sVhttp://dbpedia.org/resource/Derring-Do
p5961
V57
p5962
sVhttp://dbpedia.org/resource/Przevalski's_nuthatch
p5963
V33
p5964
sVhttp://dbpedia.org/resource/Go_Marching
p5965
V59
p5966
sVhttp://dbpedia.org/resource/Australia_(horse)
p5967
V60
p5968
sVhttp://dbpedia.org/resource/Golden_Fleece_(horse)
p5969
V60
p5970
sVhttp://dbpedia.org/resource/Godswalk
p5971
V59
p5972
sVhttp://dbpedia.org/resource/Cherry_Hinton_(horse)
p5973
V57
p5974
sVhttp://dbpedia.org/resource/Vaguely_Noble
p5975
V62
p5976
sVhttp://dbpedia.org/resource/Flight_(horse)
p5977
V59
p5978
sVhttp://dbpedia.org/resource/Mieuxce_(horse)
p5979
V57
p5980
sVhttp://dbpedia.org/resource/Second_Set_(horse)
p5981
V58
p5982
sVhttp://dbpedia.org/resource/Ruler_on_Ice
p5983
V60
p5984
sVhttp://dbpedia.org/resource/Pseudohemihyalea_fallaciosa
p5985
V33
p5986
sVhttp://dbpedia.org/resource/Lycoperdon_mammiforme
p5987
V30
p5988
sVhttp://dbpedia.org/resource/Thomisus_onustus
p5989
V36
p5990
sVhttp://dbpedia.org/resource/Suillus_salmonicolor
p5991
V38
p5992
sVhttp://dbpedia.org/resource/Compton_Place_(horse)
p5993
V59
p5994
sVhttp://dbpedia.org/resource/Peanut
p5995
V92
p5996
sVhttp://dbpedia.org/resource/Coconut
p5997
V90
p5998
sVhttp://dbpedia.org/resource/Psidium_(horse)
p5999
V61
p6000
s.