(dp0
Vhttp://dbpedia.org/property/tribus
p1
V12808
p2
sVhttp://dbpedia.org/property/rangeMapCaption
p3
V4757
p4
sVhttp://dbpedia.org/property/synonyms
p5
V81464
p6
sVhttp://dbpedia.org/property/imageCaption
p7
V37045
p8
sVhttp://dbpedia.org/property/unrankedSuperfamilia
p9
V75142
p10
sVhttp://dbpedia.org/property/ordo
p11
V189880
p12
sVhttp://dbpedia.org/property/breeder
p13
V3554
p14
sVhttp://dbpedia.org/property/phylum
p15
V215831
p16
sVhttp://dbpedia.org/property/sex
p17
V3692
p18
sVhttp://dbpedia.org/property/subphylum
p19
V10199
p20
sVhttp://dbpedia.org/property/damsire
p21
V3666
p22
sVhttp://dbpedia.org/property/infraordo
p23
V5327
p24
sVhttp://dbpedia.org/property/subdivision
p25
V30522
p26
sVhttp://dbpedia.org/property/subordo
p27
V31518
p28
sVhttp://dbpedia.org/property/sire
p29
V3693
p30
sVhttp://dbpedia.org/property/typeSpeciesAuthority
p31
V4029
p32
sVhttp://dbpedia.org/property/image
p33
V5123
p34
sVhttp://dbpedia.org/property/grandsire
p35
V3566
p36
sVhttp://dbpedia.org/property/f
p37
V3480
p38
sVhttp://dbpedia.org/property/binomialAuthority
p39
V91981
p40
sVhttp://dbpedia.org/property/owner
p41
V4569
p42
sVhttp://dbpedia.org/property/country
p43
V3714
p44
sVhttp://dbpedia.org/property/record
p45
V3564
p46
sVhttp://dbpedia.org/property/m
p47
V3473
p48
sVhttp://dbpedia.org/property/subfamilia
p49
V35579
p50
sVhttp://dbpedia.org/property/genus
p51
V209570
p52
sVhttp://dbpedia.org/property/foaled
p53
V3693
p54
sVhttp://dbpedia.org/property/binomial
p55
V165520
p56
sVhttp://dbpedia.org/property/race
p57
V17507
p58
sVhttp://dbpedia.org/property/classis
p59
V215634
p60
sVhttp://dbpedia.org/property/familiaAuthority
p61
V3671
p62
sVhttp://dbpedia.org/property/fossilRange
p63
V5684
p64
sVhttp://dbpedia.org/property/rangeMap
p65
V6231
p66
sVhttp://dbpedia.org/property/status
p67
V35009
p68
sVhttp://dbpedia.org/property/regnum
p69
V216104
p70
sVhttp://dbpedia.org/property/colour
p71
V3650
p72
sVhttp://dbpedia.org/property/statusSystem
p73
V33973
p74
sVhttp://dbpedia.org/property/imageWidth
p75
V29521
p76
sVhttp://dbpedia.org/property/subdivisionRanks
p77
V25294
p78
sVhttp://dbpedia.org/property/name
p79
V132649
p80
sVhttp://dbpedia.org/property/superfamilia
p81
V35775
p82
sVhttp://dbpedia.org/property/horsename
p83
V3657
p84
sVhttp://dbpedia.org/property/dam
p85
V3690
p86
sVhttp://dbpedia.org/property/species
p87
V171202
p88
sVhttp://dbpedia.org/property/familia
p89
V212461
p90
sVhttp://dbpedia.org/property/trainer
p91
V4243
p92
sVhttp://dbpedia.org/property/typeSpecies
p93
V5545
p94
sVhttp://dbpedia.org/property/year
p95
V4654
p96
sVhttp://dbpedia.org/property/subclassis
p97
V7049
p98
sVhttp://dbpedia.org/property/genusAuthority
p99
V37755
p100
s.