(dp0
Vhttp://dbpedia.org/property/fmf
p1
V2095
p2
sVhttp://dbpedia.org/property/awards
p3
V2625
p4
sVhttp://dbpedia.org/property/ff
p5
V3451
p6
sVhttp://dbpedia.org/property/imageCaption
p7
V2293
p8
sVhttp://dbpedia.org/property/fm
p9
V3442
p10
sVhttp://dbpedia.org/property/ordo
p11
V8863
p12
sVhttp://dbpedia.org/property/f
p13
V3480
p14
sVhttp://dbpedia.org/property/phylum
p15
V8902
p16
sVhttp://dbpedia.org/property/mmf
p17
V2099
p18
sVhttp://dbpedia.org/property/mmm
p19
V2083
p20
sVhttp://dbpedia.org/property/rangeMapCaption
p21
V2557
p22
sVhttp://dbpedia.org/property/rangeMap
p23
V2794
p24
sVhttp://dbpedia.org/property/sex
p25
V3692
p26
sVhttp://dbpedia.org/property/damsire
p27
V3666
p28
sVhttp://dbpedia.org/property/mf
p29
V3449
p30
sVhttp://dbpedia.org/property/subdivision
p31
V5574
p32
sVhttp://dbpedia.org/property/sire
p33
V3693
p34
sVhttp://dbpedia.org/property/mmmf
p35
V1929
p36
sVhttp://dbpedia.org/property/fff
p37
V2094
p38
sVhttp://dbpedia.org/property/grandsire
p39
V3566
p40
sVhttp://dbpedia.org/property/binomialAuthority
p41
V3559
p42
sVhttp://dbpedia.org/property/owner
p43
V4569
p44
sVhttp://dbpedia.org/property/country
p45
V3691
p46
sVhttp://dbpedia.org/property/ffm
p47
V2081
p48
sVhttp://dbpedia.org/property/m
p49
V3468
p50
sVhttp://dbpedia.org/property/earnings
p51
V2935
p52
sVhttp://dbpedia.org/property/genus
p53
V8438
p54
sVhttp://dbpedia.org/property/mff
p55
V2094
p56
sVhttp://dbpedia.org/property/foaled
p57
V3693
p58
sVhttp://dbpedia.org/property/binomial
p59
V6085
p60
sVhttp://dbpedia.org/property/mm
p61
V3435
p62
sVhttp://dbpedia.org/property/horsename
p63
V3657
p64
sVhttp://dbpedia.org/property/classis
p65
V8944
p66
sVhttp://dbpedia.org/property/breeder
p67
V3554
p68
sVhttp://dbpedia.org/property/record
p69
V3564
p70
sVhttp://dbpedia.org/property/status
p71
V5835
p72
sVhttp://dbpedia.org/property/regnum
p73
V8943
p74
sVhttp://dbpedia.org/property/colour
p75
V3645
p76
sVhttp://dbpedia.org/property/fmm
p77
V2086
p78
sVhttp://dbpedia.org/property/statusSystem
p79
V5576
p80
sVhttp://dbpedia.org/property/subdivisionRanks
p81
V2301
p82
sVhttp://dbpedia.org/property/name
p83
V9496
p84
sVhttp://dbpedia.org/property/fmmm
p85
V1929
p86
sVhttp://dbpedia.org/property/race
p87
V17507
p88
sVhttp://dbpedia.org/property/species
p89
V6623
p90
sVhttp://dbpedia.org/property/familia
p91
V8768
p92
sVhttp://dbpedia.org/property/trainer
p93
V4243
p94
sVhttp://dbpedia.org/property/dam
p95
V3690
p96
sVhttp://dbpedia.org/property/mfm
p97
V2084
p98
sVhttp://dbpedia.org/property/genusAuthority
p99
V2109
p100
s.