(dp0
Vhttp://dbpedia.org/resource/Silent_Witness_(horse)
p1
V66
p2
sVhttp://dbpedia.org/resource/Whirlaway
p3
V65
p4
sVhttp://dbpedia.org/resource/Unfuwain
p5
V65
p6
sVhttp://dbpedia.org/resource/Riva_Ridge
p7
V65
p8
sVhttp://dbpedia.org/resource/Diesis_(horse)
p9
V62
p10
sVhttp://dbpedia.org/resource/Lion
p11
V66
p12
sVhttp://dbpedia.org/resource/Orme_(horse)
p13
V66
p14
sVhttp://dbpedia.org/resource/Shergar
p15
V69
p16
sVhttp://dbpedia.org/resource/Zabeel
p17
V64
p18
sVhttp://dbpedia.org/resource/Fossa_(animal)
p19
V67
p20
sVhttp://dbpedia.org/resource/Kingman_(British_horse)
p21
V67
p22
sVhttp://dbpedia.org/resource/Seattle_Slew
p23
V67
p24
sVhttp://dbpedia.org/resource/Commander_in_Chief_(horse)
p25
V66
p26
sVhttp://dbpedia.org/resource/Hurry_On
p27
V63
p28
sVhttp://dbpedia.org/resource/Tim_Tam_(horse)
p29
V65
p30
sVhttp://dbpedia.org/resource/War_Admiral
p31
V67
p32
sVhttp://dbpedia.org/resource/Vintage_Crop
p33
V69
p34
sVhttp://dbpedia.org/resource/Belmez_(horse)
p35
V62
p36
sVhttp://dbpedia.org/resource/Try_My_Best
p37
V63
p38
sVhttp://dbpedia.org/resource/Rule_of_Law_(horse)
p39
V65
p40
sVhttp://dbpedia.org/resource/Damascus_(horse)
p41
V64
p42
sVhttp://dbpedia.org/resource/New_Approach
p43
V66
p44
sVhttp://dbpedia.org/resource/Fantastic_Light
p45
V65
p46
sVhttp://dbpedia.org/resource/Persimmon_(horse)
p47
V66
p48
sVhttp://dbpedia.org/resource/Haafhd
p49
V64
p50
sVhttp://dbpedia.org/resource/Tulyar
p51
V64
p52
sVhttp://dbpedia.org/resource/Makybe_Diva
p53
V68
p54
sVhttp://dbpedia.org/resource/Narita_Brian
p55
V65
p56
sVhttp://dbpedia.org/resource/Orfevre
p57
V66
p58
sVhttp://dbpedia.org/resource/The_Minstrel
p59
V65
p60
sVhttp://dbpedia.org/resource/High_Chaparral
p61
V66
p62
sVhttp://dbpedia.org/resource/Oh_So_Sharp
p63
V66
p64
sVhttp://dbpedia.org/resource/Ruffian_(horse)
p65
V66
p66
sVhttp://dbpedia.org/resource/Balanchine_(horse)
p67
V63
p68
sVhttp://dbpedia.org/resource/Bago_(horse)
p69
V66
p70
sVhttp://dbpedia.org/resource/Nashua_(horse)
p71
V66
p72
sVhttp://dbpedia.org/resource/Nathaniel_(horse)
p73
V65
p74
sVhttp://dbpedia.org/resource/Dance_Smartly
p75
V66
p76
sVhttp://dbpedia.org/resource/Tom_Fool
p77
V66
p78
sVhttp://dbpedia.org/resource/Ghostzapper
p79
V65
p80
sVhttp://dbpedia.org/resource/Ribot_(horse)
p81
V65
p82
sVhttp://dbpedia.org/resource/Opera_House_(horse)
p83
V64
p84
sVhttp://dbpedia.org/resource/John_Henry_(horse)
p85
V66
p86
sVhttp://dbpedia.org/resource/Citation_(horse)
p87
V66
p88
sVhttp://dbpedia.org/resource/Northern_Dancer
p89
V66
p90
sVhttp://dbpedia.org/resource/Cigar_(horse)
p91
V68
p92
sVhttp://dbpedia.org/resource/Encke_(horse)
p93
V65
p94
sVhttp://dbpedia.org/resource/Caractacus_(horse)
p95
V66
p96
sVhttp://dbpedia.org/resource/Colin_(horse)
p97
V65
p98
sVhttp://dbpedia.org/resource/Salsabil_(horse)
p99
V65
p100
sVhttp://dbpedia.org/resource/Alhaarth
p101
V67
p102
sVhttp://dbpedia.org/resource/Sir_Gallahad
p103
V65
p104
sVhttp://dbpedia.org/resource/Tapestry_(horse)
p105
V63
p106
sVhttp://dbpedia.org/resource/Nijinsky_(horse)
p107
V67
p108
sVhttp://dbpedia.org/resource/Pommern_(horse)
p109
V62
p110
sVhttp://dbpedia.org/resource/Forego
p111
V64
p112
sVhttp://dbpedia.org/resource/Miesque
p113
V66
p114
sVhttp://dbpedia.org/resource/Shuvee
p115
V65
p116
sVhttp://dbpedia.org/resource/Authorized_(horse)
p117
V65
p118
sVhttp://dbpedia.org/resource/Native_Dancer
p119
V64
p120
sVhttp://dbpedia.org/resource/Ormonde_(horse)
p121
V69
p122
sVhttp://dbpedia.org/resource/Chief_Bearhart
p123
V64
p124
sVhttp://dbpedia.org/resource/Nayef_(horse)
p125
V64
p126
sVhttp://dbpedia.org/resource/Alydar
p127
V66
p128
sVhttp://dbpedia.org/resource/Lammtarra
p129
V67
p130
sVhttp://dbpedia.org/resource/George_Washington_(horse)
p131
V65
p132
sVhttp://dbpedia.org/resource/Royal_Applause
p133
V65
p134
sVhttp://dbpedia.org/resource/Affirmed
p135
V65
p136
sVhttp://dbpedia.org/resource/Pinza
p137
V64
p138
sVhttp://dbpedia.org/resource/Capot
p139
V63
p140
sVhttp://dbpedia.org/resource/Sir_Tristram
p141
V63
p142
sVhttp://dbpedia.org/resource/Hurricane_Run
p143
V65
p144
sVhttp://dbpedia.org/resource/King's_Theatre_(horse)
p145
V65
p146
sVhttp://dbpedia.org/resource/Majestic_Prince
p147
V65
p148
sVhttp://dbpedia.org/resource/Sunday_Silence
p149
V64
p150
sVhttp://dbpedia.org/resource/Invincible_Spirit
p151
V65
p152
sVhttp://dbpedia.org/resource/Further_Flight
p153
V64
p154
sVhttp://dbpedia.org/resource/Rock_of_Gibraltar_(horse)
p155
V65
p156
sVhttp://dbpedia.org/resource/English_Channel_(horse)
p157
V63
p158
sVhttp://dbpedia.org/resource/Frankel_(horse)
p159
V68
p160
sVhttp://dbpedia.org/resource/Bimelech
p161
V68
p162
sVhttp://dbpedia.org/resource/Singspiel_(horse)
p163
V69
p164
sVhttp://dbpedia.org/resource/Lexington_(horse)
p165
V66
p166
sVhttp://dbpedia.org/resource/Noble_Mission
p167
V66
p168
sVhttp://dbpedia.org/resource/Danehill_Dancer
p169
V65
p170
sVhttp://dbpedia.org/resource/Shahrastani
p171
V66
p172
sVhttp://dbpedia.org/resource/Sinndar
p173
V65
p174
sVhttp://dbpedia.org/resource/Oxbow_(horse)
p175
V68
p176
sVhttp://dbpedia.org/resource/Generous_(horse)
p177
V68
p178
sVhttp://dbpedia.org/resource/Dawn_Approach
p179
V65
p180
sVhttp://dbpedia.org/resource/Denman_(horse)
p181
V64
p182
sVhttp://dbpedia.org/resource/Kazzia
p183
V64
p184
sVhttp://dbpedia.org/resource/T_M_Opera_O
p185
V66
p186
sVhttp://dbpedia.org/resource/Takeover_Target
p187
V66
p188
sVhttp://dbpedia.org/resource/Special_Duty
p189
V65
p190
sVhttp://dbpedia.org/resource/Stay_Thirsty
p191
V62
p192
sVhttp://dbpedia.org/resource/Life_Is_Sweet_(horse)
p193
V62
p194
sVhttp://dbpedia.org/resource/Troy_(horse)
p195
V66
p196
sVhttp://dbpedia.org/resource/Dansili
p197
V67
p198
sVhttp://dbpedia.org/resource/Mine_That_Bird
p199
V66
p200
sVhttp://dbpedia.org/resource/Russian_Rhythm
p201
V67
p202
sVhttp://dbpedia.org/resource/Hindoo_(horse)
p203
V67
p204
sVhttp://dbpedia.org/resource/Funny_Cide
p205
V67
p206
sVhttp://dbpedia.org/resource/Encosta_De_Lago
p207
V64
p208
sVhttp://dbpedia.org/resource/Rumplestiltskin_(horse)
p209
V66
p210
sVhttp://dbpedia.org/resource/Hawk_Wing
p211
V66
p212
sVhttp://dbpedia.org/resource/Go_and_Go
p213
V63
p214
sVhttp://dbpedia.org/resource/A.P._Indy
p215
V66
p216
sVhttp://dbpedia.org/resource/Secretariat_(horse)
p217
V65
p218
sVhttp://dbpedia.org/resource/Primonetta
p219
V63
p220
sVhttp://dbpedia.org/resource/Lady's_Secret
p221
V64
p222
sVhttp://dbpedia.org/resource/Chateaugay_(horse)
p223
V63
p224
sVhttp://dbpedia.org/resource/Doyen_(horse)
p225
V63
p226
sVhttp://dbpedia.org/resource/Nearco
p227
V64
p228
sVhttp://dbpedia.org/resource/Mr._Prospector
p229
V66
p230
sVhttp://dbpedia.org/resource/Hold_That_Tiger_(horse)
p231
V66
p232
sVhttp://dbpedia.org/resource/Buckpasser
p233
V66
p234
sVhttp://dbpedia.org/resource/Hanover_(horse)
p235
V68
p236
sVhttp://dbpedia.org/resource/John_F_Kennedy_(horse)
p237
V64
p238
sVhttp://dbpedia.org/resource/Vodka_(horse)
p239
V65
p240
sVhttp://dbpedia.org/resource/American_Pharoah
p241
V70
p242
sVhttp://dbpedia.org/resource/Fame_and_Glory
p243
V65
p244
sVhttp://dbpedia.org/resource/Prairie_Bayou
p245
V64
p246
sVhttp://dbpedia.org/resource/Sir_Barton
p247
V66
p248
sVhttp://dbpedia.org/resource/Bold_Ruler
p249
V64
p250
sVhttp://dbpedia.org/resource/Nashwan
p251
V65
p252
sVhttp://dbpedia.org/resource/Sun_Briar
p253
V64
p254
sVhttp://dbpedia.org/resource/Dubai_Millennium
p255
V67
p256
sVhttp://dbpedia.org/resource/Joshua_Tree_(horse)
p257
V96
p258
sVhttp://dbpedia.org/resource/Omaha_(horse)
p259
V65
p260
sVhttp://dbpedia.org/resource/Mill_Reef
p261
V65
p262
sVhttp://dbpedia.org/resource/Dream_Well_(horse)
p263
V64
p264
sVhttp://dbpedia.org/resource/Paynter_(horse)
p265
V69
p266
sVhttp://dbpedia.org/resource/Personal_Ensign
p267
V66
p268
sVhttp://dbpedia.org/resource/Aristides_(horse)
p269
V67
p270
sVhttp://dbpedia.org/resource/Islington_(horse)
p271
V66
p272
sVhttp://dbpedia.org/resource/He's_A_Smoothie
p273
V64
p274
sVhttp://dbpedia.org/resource/Gallant_Fox
p275
V63
p276
sVhttp://dbpedia.org/resource/Harbinger_(horse)
p277
V63
p278
sVhttp://dbpedia.org/resource/Pilsudski_(horse)
p279
V64
p280
sVhttp://dbpedia.org/resource/St_Paddy
p281
V63
p282
sVhttp://dbpedia.org/resource/Ferdinand_(horse)
p283
V63
p284
sVhttp://dbpedia.org/resource/Misty_for_Me
p285
V65
p286
sVhttp://dbpedia.org/resource/Kotashaan
p287
V63
p288
sVhttp://dbpedia.org/resource/Dalakhani
p289
V66
p290
sVhttp://dbpedia.org/resource/Imagine_(horse)
p291
V65
p292
sVhttp://dbpedia.org/resource/Heroic_(horse)
p293
V63
p294
sVhttp://dbpedia.org/resource/Fifinella_(horse)
p295
V64
p296
sVhttp://dbpedia.org/resource/St._Simon_(horse)
p297
V65
p298
sVhttp://dbpedia.org/resource/Tokai_Teio
p299
V63
p300
sVhttp://dbpedia.org/resource/Alysheba
p301
V67
p302
sVhttp://dbpedia.org/resource/Chance_Play
p303
V67
p304
sVhttp://dbpedia.org/resource/Glencoe_I
p305
V66
p306
sVhttp://dbpedia.org/resource/Isinglass_(horse)
p307
V65
p308
sVhttp://dbpedia.org/resource/Gay_Gallanta
p309
V66
p310
sVhttp://dbpedia.org/resource/Barathea_(horse)
p311
V65
p312
sVhttp://dbpedia.org/resource/Ouija_Board_(horse)
p313
V68
p314
sVhttp://dbpedia.org/resource/Treve_(horse)
p315
V66
p316
sVhttp://dbpedia.org/resource/Peintre_Celebre
p317
V66
p318
sVhttp://dbpedia.org/resource/Seabiscuit
p319
V66
p320
sVhttp://dbpedia.org/resource/California_Chrome
p321
V83
p322
sVhttp://dbpedia.org/resource/Embassy_(horse)
p323
V65
p324
sVhttp://dbpedia.org/resource/Man_o'_War
p325
V67
p326
sVhttp://dbpedia.org/resource/Black_Caviar
p327
V69
p328
sVhttp://dbpedia.org/resource/Swynford
p329
V66
p330
sVhttp://dbpedia.org/resource/Humpback_whale
p331
V67
p332
sVhttp://dbpedia.org/resource/Sadler's_Wells_(horse)
p333
V62
p334
sVhttp://dbpedia.org/resource/L'Enjoleur
p335
V65
p336
sVhttp://dbpedia.org/resource/Moonax
p337
V65
p338
sVhttp://dbpedia.org/resource/Flying_Fox_(horse)
p339
V67
p340
sVhttp://dbpedia.org/resource/Soviet_Song
p341
V66
p342
sVhttp://dbpedia.org/resource/Rock_Sand
p343
V64
p344
sVhttp://dbpedia.org/resource/Divine_Proportions
p345
V64
p346
sVhttp://dbpedia.org/resource/Northerly
p347
V62
p348
sVhttp://dbpedia.org/resource/Northernette
p349
V65
p350
sVhttp://dbpedia.org/resource/Giant's_Causeway_(horse)
p351
V65
p352
sVhttp://dbpedia.org/resource/J._O._Tobin
p353
V64
p354
sVhttp://dbpedia.org/resource/Galileo_(horse)
p355
V66
p356
sVhttp://dbpedia.org/resource/Dr_Devious
p357
V65
p358
sVhttp://dbpedia.org/resource/Ksar_(horse)
p359
V65
p360
sVhttp://dbpedia.org/resource/Mucho_Macho_Man
p361
V70
p362
sVhttp://dbpedia.org/resource/Alycidon
p363
V65
p364
sVhttp://dbpedia.org/resource/St_Nicholas_Abbey_(horse)
p365
V64
p366
sVhttp://dbpedia.org/resource/Barbaro
p367
V65
p368
sVhttp://dbpedia.org/resource/Sakhee
p369
V67
p370
sVhttp://dbpedia.org/resource/Oguri_Cap
p371
V62
p372
sVhttp://dbpedia.org/resource/Real_Quiet
p373
V63
p374
sVhttp://dbpedia.org/resource/Reference_Point_(horse)
p375
V66
p376
sVhttp://dbpedia.org/resource/Rags_to_Riches_(horse)
p377
V65
p378
sVhttp://dbpedia.org/resource/Oasis_Dream
p379
V65
p380
sVhttp://dbpedia.org/resource/Count_Fleet
p381
V65
p382
sVhttp://dbpedia.org/resource/Phalaris_(horse)
p383
V64
p384
sVhttp://dbpedia.org/resource/Quest_for_Fame_(horse)
p385
V65
p386
sVhttp://dbpedia.org/resource/Grandera
p387
V64
p388
sVhttp://dbpedia.org/resource/Mahmoud_(horse)
p389
V65
p390
sVhttp://dbpedia.org/resource/Ibn_Bey
p391
V63
p392
sVhttp://dbpedia.org/resource/Seattle_Dancer
p393
V62
p394
sVhttp://dbpedia.org/resource/Urban_Sea
p395
V64
p396
sVhttp://dbpedia.org/resource/Zenyatta
p397
V68
p398
sVhttp://dbpedia.org/resource/Stravinsky_(horse)
p399
V67
p400
s.