(dp0
Vhttp://dbpedia.org/resource/Doctor_Who_\u2013_The_Ultimate_Adventure
p1
V26
p2
sVhttp://dbpedia.org/resource/Le_Bourgeois_gentilhomme
p3
V35
p4
sVhttp://dbpedia.org/resource/The_Room_(play)
p5
V26
p6
sVhttp://dbpedia.org/resource/Pill_Hill_(play)
p7
V24
p8
sVhttp://dbpedia.org/resource/Sanctuary_(play)
p9
V24
p10
sVhttp://dbpedia.org/resource/Electra_(Sophocles_play)
p11
V26
p12
sVhttp://dbpedia.org/resource/End_of_the_Rainbow
p13
V25
p14
sVhttp://dbpedia.org/resource/Woman_in_Mind
p15
V25
p16
sVhttp://dbpedia.org/resource/Pygmalion_(play)
p17
V26
p18
sVhttp://dbpedia.org/resource/Dyskolos
p19
V28
p20
sVhttp://dbpedia.org/resource/A_Hard_God
p21
V24
p22
sVhttp://dbpedia.org/resource/Life_Is_a_Dream
p23
V26
p24
sVhttp://dbpedia.org/resource/She_Has_a_Name
p25
V28
p26
sVhttp://dbpedia.org/resource/The_Jollies
p27
V25
p28
sVhttp://dbpedia.org/resource/Cat_on_a_Hot_Tin_Roof
p29
V27
p30
sVhttp://dbpedia.org/resource/Sisterly_Feelings
p31
V24
p32
sVhttp://dbpedia.org/resource/The_Wild_Duck
p33
V25
p34
sVhttp://dbpedia.org/resource/Intimate_Exchanges
p35
V29
p36
sVhttp://dbpedia.org/resource/RolePlay_(play)
p37
V27
p38
sVhttp://dbpedia.org/resource/Helen_(play)
p39
V25
p40
sVhttp://dbpedia.org/resource/Don's_Party
p41
V26
p42
sVhttp://dbpedia.org/resource/Taking_Steps
p43
V24
p44
sVhttp://dbpedia.org/resource/Chapter_Two_(play)
p45
V27
p46
sVhttp://dbpedia.org/resource/Peter_and_Wendy
p47
V24
p48
sVhttp://dbpedia.org/resource/A_Delicate_Balance_(play)
p49
V24
p50
sVhttp://dbpedia.org/resource/Snake_in_the_Grass
p51
V27
p52
sVhttp://dbpedia.org/resource/Philoctetes_(Sophocles_play)
p53
V24
p54
sVhttp://dbpedia.org/resource/The_Bacchae
p55
V24
p56
sVhttp://dbpedia.org/resource/The_Marriage-Go-Round
p57
V35
p58
sVhttp://dbpedia.org/resource/Spoiled_(play)
p59
V27
p60
sVhttp://dbpedia.org/resource/An_Israeli_Love_Story
p61
V40
p62
sVhttp://dbpedia.org/resource/Dancing_at_Lughnasa
p63
V29
p64
sVhttp://dbpedia.org/resource/Joking_Apart_(play)
p65
V24
p66
sVhttp://dbpedia.org/resource/The_Dybbuk
p67
V36
p68
sVhttp://dbpedia.org/resource/A_Raisin_in_the_Sun
p69
V27
p70
sVhttp://dbpedia.org/resource/The_Revengers'_Comedies
p71
V25
p72
sVhttp://dbpedia.org/resource/My_Sister_Sadie
p73
V25
p74
sVhttp://dbpedia.org/resource/Breaker_Morant_(play)
p75
V25
p76
sVhttp://dbpedia.org/resource/The_Madwoman_of_Chaillot
p77
V24
p78
sVhttp://dbpedia.org/resource/Tony_n'_Tina's_Wedding
p79
V28
p80
sVhttp://dbpedia.org/resource/All_the_Way_(play)
p81
V24
p82
sVhttp://dbpedia.org/resource/August:_Osage_County
p83
V24
p84
sVhttp://dbpedia.org/resource/Caesar_and_Cleopatra_(play)
p85
V25
p86
sVhttp://dbpedia.org/resource/Improbable_Fiction
p87
V25
p88
sVhttp://dbpedia.org/resource/The_Curse_of_the_Daleks
p89
V27
p90
sVhttp://dbpedia.org/resource/Iphigenia_in_Aulis
p91
V24
p92
sVhttp://dbpedia.org/resource/The_Mystery_of_the_Blue_Diamond
p93
V33
p94
sVhttp://dbpedia.org/resource/Drowning_on_Dry_Land_(play)
p95
V25
p96
sVhttp://dbpedia.org/resource/A_Doll's_House
p97
V33
p98
sVhttp://dbpedia.org/resource/Tobacco_Road_(play)
p99
V24
p100
sVhttp://dbpedia.org/resource/Torch_Song_Trilogy
p101
V41
p102
sVhttp://dbpedia.org/resource/Doctor_Faustus_(play)
p103
V38
p104
sVhttp://dbpedia.org/resource/Photograph_51_(play)
p105
V26
p106
sVhttp://dbpedia.org/resource/Oedipus_the_King
p107
V30
p108
sVhttp://dbpedia.org/resource/A_Streetcar_Named_Desire_(play)
p109
V36
p110
sVhttp://dbpedia.org/resource/The_Teahouse_of_the_August_Moon_(play)
p111
V24
p112
sVhttp://dbpedia.org/resource/GamePlan_(play)
p113
V28
p114
sVhttp://dbpedia.org/resource/Hedda_Gabler
p115
V24
p116
sVhttp://dbpedia.org/resource/Orvin_\u2013_Champion_Of_Champions
p117
V25
p118
sVhttp://dbpedia.org/resource/The_Lady_from_the_Sea
p119
V27
p120
sVhttp://dbpedia.org/resource/Miss_Yesterday
p121
V25
p122
sVhttp://dbpedia.org/resource/FlatSpin
p123
V28
p124
sVhttp://dbpedia.org/resource/Electra_(Euripides_play)
p125
V24
p126
sVhttp://dbpedia.org/resource/Usha_Parinayam
p127
V25
p128
sVhttp://dbpedia.org/resource/Exit_Stage_Left
p129
V24
p130
sVhttp://dbpedia.org/resource/Bent_(play)
p131
V24
p132
sVhttp://dbpedia.org/resource/Communicating_Doors
p133
V26
p134
sVhttp://dbpedia.org/resource/Life_and_Beth
p135
V27
p136
sVhttp://dbpedia.org/resource/Iphigenia_in_Tauris
p137
V25
p138
sVhttp://dbpedia.org/resource/The_Gladiator_(1831_play)
p139
V26
p140
sVhttp://dbpedia.org/resource/Heartbreak_House
p141
V25
p142
sVhttp://dbpedia.org/resource/A_Small_Family_Business
p143
V24
p144
sVhttp://dbpedia.org/resource/The_Persians
p145
V25
p146
sVhttp://dbpedia.org/resource/Haunting_Julia
p147
V27
p148
sVhttp://dbpedia.org/resource/Angels_in_America:_A_Gay_Fantasia_on_National_Themes
p149
V37
p150
sVhttp://dbpedia.org/resource/Iphigenia_in_Tauris_(Goethe)
p151
V25
p152
sVhttp://dbpedia.org/resource/Marat/Sade
p153
V26
p154
sVhttp://dbpedia.org/resource/Medea_(play)
p155
V27
p156
sVhttp://dbpedia.org/resource/Amadeus
p157
V24
p158
sVhttp://dbpedia.org/resource/A_Chorus_of_Disapproval_(play)
p159
V24
p160
sVhttp://dbpedia.org/resource/If_I_Were_You_(play)
p161
V25
p162
sVhttp://dbpedia.org/resource/Sugar_Daddies_(play)
p163
V25
p164
sVhttp://dbpedia.org/resource/Private_Fears_in_Public_Places
p165
V25
p166
sVhttp://dbpedia.org/resource/Seminar_(play)
p167
V25
p168
sVhttp://dbpedia.org/resource/The_Mousetrap
p169
V27
p170
sVhttp://dbpedia.org/resource/Andha_Yug
p171
V24
p172
sVhttp://dbpedia.org/resource/The_Importance_of_Being_Earnest
p173
V24
p174
sVhttp://dbpedia.org/resource/Damsels_in_Distress_(plays)
p175
V26
p176
sVhttp://dbpedia.org/resource/Big_Toys
p177
V30
p178
sVhttp://dbpedia.org/resource/Sardanapalus_(play)
p179
V25
p180
sVhttp://dbpedia.org/resource/The_Crucible
p181
V25
p182
sVhttp://dbpedia.org/resource/Arias_with_a_Twist
p183
V24
p184
sVhttp://dbpedia.org/resource/Doctor_Who_and_the_Daleks_in_the_Seven_Keys_to_Doomsday
p185
V27
p186
sVhttp://dbpedia.org/resource/Presence_(play)
p187
V27
p188
sVhttp://dbpedia.org/resource/The_Miser
p189
V25
p190
sVhttp://dbpedia.org/resource/The_Rose_Tattoo
p191
V25
p192
sVhttp://dbpedia.org/resource/Suburban_Strains
p193
V24
p194
sVhttp://dbpedia.org/resource/Love,_Loss,_and_What_I_Wore
p195
V24
p196
sVhttp://dbpedia.org/resource/Man_of_the_Moment_(play)
p197
V27
p198
sVhttp://dbpedia.org/resource/Electra_(Giraudoux_play)
p199
V26
p200
s.