(dp0
Vhttp://dbpedia.org/property/series
p1
V84
p2
sVhttp://dbpedia.org/property/producer
p3
V21
p4
sVhttp://dbpedia.org/property/place
p5
V1998
p6
sVhttp://dbpedia.org/property/distributor
p7
V13
p8
sVhttp://dbpedia.org/property/countryOfOrigin
p9
V146
p10
sVhttp://dbpedia.org/property/characters
p11
V4691
p12
sVhttp://dbpedia.org/property/no
p13
V42
p14
sVhttp://dbpedia.org/property/genre
p15
V1389
p16
sVhttp://dbpedia.org/property/caption
p17
V692
p18
sVhttp://dbpedia.org/property/writer
p19
V1994
p20
sVhttp://dbpedia.org/property/imageAlt
p21
V29
p22
sVhttp://dbpedia.org/property/subject
p23
V620
p24
sVhttp://dbpedia.org/property/released
p25
V22
p26
sVhttp://dbpedia.org/property/nextPlay
p27
V55
p28
sVhttp://dbpedia.org/property/mute
p29
V47
p30
sVhttp://dbpedia.org/property/quote
p31
V11
p32
sVhttp://dbpedia.org/property/thisPlay
p33
V53
p34
sVhttp://dbpedia.org/property/music
p35
V16
p36
sVhttp://dbpedia.org/property/wordnet_type
p37
V25
p38
sVhttp://dbpedia.org/property/image
p39
V17
p40
sVhttp://dbpedia.org/property/rev
p41
V19
p42
sVhttp://dbpedia.org/property/\u05ea\u05d5\u05db\u05df
p43
V14
p44
sVhttp://dbpedia.org/property/language
p45
V29
p46
sVhttp://dbpedia.org/property/chorus
p47
V59
p48
sVhttp://dbpedia.org/property/country
p49
V31
p50
sVhttp://dbpedia.org/property/author
p51
V24
p52
sVhttp://dbpedia.org/property/starring
p53
V63
p54
sVhttp://dbpedia.org/property/\u05d0\u05d7\u05e8
p55
V9
p56
sVhttp://dbpedia.org/property/web
p57
V168
p58
sVhttp://dbpedia.org/property/width
p59
V12
p60
sVhttp://dbpedia.org/property/productions
p61
V11
p62
sVhttp://dbpedia.org/property/chronology
p63
V48
p64
sVhttp://dbpedia.org/property/filename
p65
V14
p66
sVhttp://dbpedia.org/property/date
p67
V18
p68
sVhttp://dbpedia.org/property/align
p69
V11
p70
sVhttp://dbpedia.org/property/runtime
p71
V18
p72
sVhttp://dbpedia.org/property/id
p73
V92
p74
sVhttp://dbpedia.org/property/dateOfPremiere
p75
V209
p76
sVhttp://dbpedia.org/property/title
p77
V117
p78
sVhttp://dbpedia.org/property/setting
p79
V1159
p80
sVhttp://dbpedia.org/property/studio
p81
V15
p82
sVhttp://dbpedia.org/property/mainCharacters
p83
V29
p84
sVhttp://dbpedia.org/property/lastPlay
p85
V54
p86
sVhttp://dbpedia.org/property/name
p87
V1888
p88
sVhttp://dbpedia.org/property/premiere
p89
V1395
p90
sVhttp://dbpedia.org/property/originalLanguage
p91
V168
p92
sVhttp://dbpedia.org/property/\u05e0\u05d5\u05db\u05d7\u05d9
p93
V10
p94
sVhttp://dbpedia.org/property/director
p95
V40
p96
sVhttp://dbpedia.org/property/origLang
p97
V1424
p98
sVhttp://dbpedia.org/property/imageSize
p99
V401
p100
s.