(dp0
Vhttp://dbpedia.org/resource/Billy_Crystal
p1
V37
p2
sVhttp://dbpedia.org/resource/Ryan_Stiles
p3
V34
p4
sVhttp://dbpedia.org/resource/Bill_Bailey
p5
V38
p6
sVhttp://dbpedia.org/resource/Cardis_Cardell_Willis
p7
V34
p8
sVhttp://dbpedia.org/resource/Zach_Galifianakis
p9
V36
p10
sVhttp://dbpedia.org/resource/Nipsey_Russell
p11
V33
p12
sVhttp://dbpedia.org/resource/Flip_Wilson
p13
V36
p14
sVhttp://dbpedia.org/resource/Ray_Romano
p15
V36
p16
sVhttp://dbpedia.org/resource/Chris_Rock
p17
V44
p18
sVhttp://dbpedia.org/resource/Robert_Klein
p19
V33
p20
sVhttp://dbpedia.org/resource/Don_Rickles
p21
V35
p22
sVhttp://dbpedia.org/resource/Pat_Condell
p23
V41
p24
sVhttp://dbpedia.org/resource/Rodney_Dangerfield
p25
V38
p26
sVhttp://dbpedia.org/resource/Martin_Lawrence
p27
V34
p28
sVhttp://dbpedia.org/resource/Red_Skelton
p29
V33
p30
sVhttp://dbpedia.org/resource/Dane_Cook
p31
V34
p32
sVhttp://dbpedia.org/resource/Phil_Silvers
p33
V42
p34
sVhttp://dbpedia.org/resource/Bill_Hicks
p35
V37
p36
sVhttp://dbpedia.org/resource/Jon_Stewart
p37
V35
p38
sVhttp://dbpedia.org/resource/Harvey_Korman
p39
V35
p40
sVhttp://dbpedia.org/resource/Jim_Gaffigan
p41
V34
p42
sVhttp://dbpedia.org/resource/Dan_Aykroyd
p43
V43
p44
sVhttp://dbpedia.org/resource/Don_Harron
p45
V35
p46
sVhttp://dbpedia.org/resource/Jerry_Lewis
p47
V41
p48
sVhttp://dbpedia.org/resource/Tracey_Ullman
p49
V53
p50
sVhttp://dbpedia.org/resource/Moms_Mabley
p51
V44
p52
sVhttp://dbpedia.org/resource/Groucho_Marx
p53
V40
p54
sVhttp://dbpedia.org/resource/Thanasis_Veggos
p55
V33
p56
sVhttp://dbpedia.org/resource/Mel_Brooks
p57
V33
p58
sVhttp://dbpedia.org/resource/Eddie_Murphy
p59
V44
p60
sVhttp://dbpedia.org/resource/Harry_Hill
p61
V35
p62
sVhttp://dbpedia.org/resource/Nuryn_Sanlley
p63
V37
p64
sVhttp://dbpedia.org/resource/Bill_Engvall
p65
V35
p66
sVhttp://dbpedia.org/resource/Carlos_Alazraqui
p67
V36
p68
sVhttp://dbpedia.org/resource/Will_Hay
p69
V35
p70
sVhttp://dbpedia.org/resource/Chespirito
p71
V35
p72
sVhttp://dbpedia.org/resource/Jack_Paar
p73
V40
p74
sVhttp://dbpedia.org/resource/Larry_David
p75
V43
p76
sVhttp://dbpedia.org/resource/Kathy_Griffin
p77
V35
p78
sVhttp://dbpedia.org/resource/Jeff_Dunham
p79
V35
p80
sVhttp://dbpedia.org/resource/Dave_Chappelle
p81
V42
p82
sVhttp://dbpedia.org/resource/Richard_Pryor
p83
V47
p84
sVhttp://dbpedia.org/resource/Ricky_Gervais
p85
V44
p86
sVhttp://dbpedia.org/resource/Benny_Hill
p87
V43
p88
sVhttp://dbpedia.org/resource/Jerry_Seinfeld
p89
V51
p90
sVhttp://dbpedia.org/resource/Patrice_O'Neal
p91
V36
p92
sVhttp://dbpedia.org/resource/John_Belushi
p93
V47
p94
sVhttp://dbpedia.org/resource/Colin_Mochrie
p95
V37
p96
sVhttp://dbpedia.org/resource/David_Baddiel
p97
V36
p98
sVhttp://dbpedia.org/resource/Greg_Giraldo
p99
V42
p100
sVhttp://dbpedia.org/resource/Conan_O'Brien
p101
V59
p102
sVhttp://dbpedia.org/resource/Jay_Leno
p103
V37
p104
sVhttp://dbpedia.org/resource/Shaun_Micallef
p105
V33
p106
sVhttp://dbpedia.org/resource/Fred_Travalena
p107
V34
p108
sVhttp://dbpedia.org/resource/Rowan_Atkinson
p109
V43
p110
sVhttp://dbpedia.org/resource/Ed_Wynn
p111
V44
p112
sVhttp://dbpedia.org/resource/Bernie_Mac
p113
V51
p114
sVhttp://dbpedia.org/resource/Louis_C.K.
p115
V48
p116
sVhttp://dbpedia.org/resource/Aziz_Ansari
p117
V35
p118
sVhttp://dbpedia.org/resource/Chevy_Chase
p119
V37
p120
sVhttp://dbpedia.org/resource/Jerry_Clower
p121
V41
p122
sVhttp://dbpedia.org/resource/Lenny_Bruce
p123
V45
p124
sVhttp://dbpedia.org/resource/Andy_Samberg
p125
V38
p126
sVhttp://dbpedia.org/resource/Arj_Barker
p127
V36
p128
sVhttp://dbpedia.org/resource/Charlie_Callas
p129
V41
p130
sVhttp://dbpedia.org/resource/Jimmy_Fallon
p131
V50
p132
sVhttp://dbpedia.org/resource/Max_Miller_(comedian)
p133
V37
p134
sVhttp://dbpedia.org/resource/Jack_Dee
p135
V37
p136
sVhttp://dbpedia.org/resource/Greg_Benson
p137
V38
p138
sVhttp://dbpedia.org/resource/Ellen_DeGeneres
p139
V47
p140
sVhttp://dbpedia.org/resource/David_Brenner
p141
V37
p142
sVhttp://dbpedia.org/resource/Rik_Mayall
p143
V37
p144
sVhttp://dbpedia.org/resource/Ernie_Kovacs
p145
V35
p146
sVhttp://dbpedia.org/resource/John_Oliver_(comedian)
p147
V49
p148
sVhttp://dbpedia.org/resource/Gaspar_Henaine
p149
V33
p150
sVhttp://dbpedia.org/resource/Johnny_Carson
p151
V46
p152
sVhttp://dbpedia.org/resource/Vernon_Chatman
p153
V39
p154
sVhttp://dbpedia.org/resource/Dolphy
p155
V34
p156
sVhttp://dbpedia.org/resource/Dana_Carvey
p157
V37
p158
sVhttp://dbpedia.org/resource/Dennis_Miller
p159
V36
p160
sVhttp://dbpedia.org/resource/Harold_Lloyd
p161
V42
p162
sVhttp://dbpedia.org/resource/Bill_Maher
p163
V44
p164
sVhttp://dbpedia.org/resource/Stephen_Colbert
p165
V50
p166
sVhttp://dbpedia.org/resource/David_Letterman
p167
V42
p168
sVhttp://dbpedia.org/resource/Lily_Tomlin
p169
V41
p170
sVhttp://dbpedia.org/resource/Sarah_Silverman
p171
V43
p172
sVhttp://dbpedia.org/resource/Jonathan_Winters
p173
V42
p174
sVhttp://dbpedia.org/resource/Paul_Merton
p175
V35
p176
sVhttp://dbpedia.org/resource/Claudiu_Teohari
p177
V36
p178
sVhttp://dbpedia.org/resource/Mitch_Hedberg
p179
V41
p180
sVhttp://dbpedia.org/resource/Soupy_Sales
p181
V33
p182
sVhttp://dbpedia.org/resource/Paula_Poundstone
p183
V33
p184
sVhttp://dbpedia.org/resource/Matt_Lucas
p185
V39
p186
sVhttp://dbpedia.org/resource/Dick_Gregory
p187
V37
p188
sVhttp://dbpedia.org/resource/Ji_Suk-jin
p189
V33
p190
sVhttp://dbpedia.org/resource/Sacha_Baron_Cohen
p191
V50
p192
sVhttp://dbpedia.org/resource/Larry_the_Cable_Guy
p193
V39
p194
sVhttp://dbpedia.org/resource/Kenny_Everett
p195
V33
p196
sVhttp://dbpedia.org/resource/Bob_Newhart
p197
V36
p198
sVhttp://dbpedia.org/resource/Margaret_Cho
p199
V38
p200
s.