(dp0
Vhttp://dbpedia.org/ontology/wikiPageExternalLink
p1
V4086
p2
sVhttp://dbpedia.org/ontology/genre
p3
V1759
p4
sVhttp://dbpedia.org/ontology/influencedBy
p5
V1101
p6
sVhttp://dbpedia.org/property/birthDate
p7
V1070
p8
sVhttp://dbpedia.org/property/dateOfBirth
p9
V1003
p10
sVhttp://dbpedia.org/ontology/birthPlace
p11
V2117
p12
sVhttp://dbpedia.org/ontology/wikiPageID
p13
V1276
p14
sVhttp://dbpedia.org/ontology/wikiPageWikiLink
p15
V5019
p16
sVhttp://dbpedia.org/property/name
p17
V2456
p18
sVhttp://dbpedia.org/ontology/birthDate
p19
V1174
p20
sVhttp://dbpedia.org/property/birthPlace
p21
V1823
p22
sVhttp://dbpedia.org/property/medium
p23
V1738
p24
sVhttp://dbpedia.org/property/shortDescription
p25
V1162
p26
sVhttp://dbpedia.org/property/placeOfBirth
p27
V1508
p28
sVhttp://dbpedia.org/property/genre
p29
V1692
p30
sVhttp://dbpedia.org/property/influences
p31
V1053
p32
sVhttp://dbpedia.org/ontology/wikiPageRevisionID
p33
V1276
p34
sVhttp://dbpedia.org/ontology/abstract
p35
V3452
p36
sVhttp://dbpedia.org/property/notableWork
p37
V1265
p38
sVhttp://dbpedia.org/property/subject
p39
V1061
p40
s.