(dp0
Vhttp://dbpedia.org/ontology/wikiPageID
p1
V108202
p2
sVhttp://dbpedia.org/ontology/wikiPageExternalLink
p3
V102888
p4
sVhttp://dbpedia.org/ontology/wikiPageRevisionID
p5
V108202
p6
sVhttp://dbpedia.org/property/birthDate
p7
V105539
p8
sVhttp://dbpedia.org/ontology/careerStation
p9
V710205
p10
sVhttp://dbpedia.org/ontology/position
p11
V109439
p12
sVhttp://dbpedia.org/ontology/abstract
p13
V267285
p14
sVhttp://dbpedia.org/property/birthPlace
p15
V162562
p16
sVhttp://dbpedia.org/property/name
p17
V207557
p18
sVhttp://dbpedia.org/property/caps
p19
V423029
p20
sVhttp://dbpedia.org/ontology/wikiPageWikiLink
p21
V113323
p22
sVhttp://dbpedia.org/property/position
p23
V114049
p24
sVhttp://dbpedia.org/property/clubs
p25
V528360
p26
sVhttp://dbpedia.org/property/shortDescription
p27
V100759
p28
sVhttp://dbpedia.org/property/goals
p29
V287689
p30
sVhttp://dbpedia.org/ontology/team
p31
V602270
p32
sVhttp://dbpedia.org/property/years
p33
V484551
p34
sVhttp://dbpedia.org/ontology/birthPlace
p35
V178357
p36
sVhttp://dbpedia.org/ontology/birthDate
p37
V109011
p38
sVhttp://dbpedia.org/property/placeOfBirth
p39
V135259
p40
s.