(dp0
Vhttp://dbpedia.org/ontology/wikiPageExternalLink
p1
V238977
p2
sVhttp://dbpedia.org/ontology/openingYear
p3
V38471
p4
sVhttp://dbpedia.org/ontology/yearOfConstruction
p5
V36242
p6
sVhttp://dbpedia.org/property/architect
p7
V36417
p8
sVhttp://dbpedia.org/ontology/location
p9
V176368
p10
sVhttp://dbpedia.org/property/address
p11
V38371
p12
sVhttp://dbpedia.org/property/type
p13
V70327
p14
sVhttp://dbpedia.org/ontology/abstract
p15
V348156
p16
sVhttp://dbpedia.org/ontology/wikiPageID
p17
V180570
p18
sVhttp://dbpedia.org/property/location
p19
V200138
p20
sVhttp://dbpedia.org/property/name
p21
V146820
p22
sVhttp://dbpedia.org/ontology/address
p23
V36603
p24
sVhttp://dbpedia.org/property/mile
p25
V96354
p26
sVhttp://dbpedia.org/ontology/thumbnail
p27
V128621
p28
sVhttp://dbpedia.org/ontology/wikiPageWikiLink
p29
V90868
p30
sVhttp://dbpedia.org/property/caption
p31
V58989
p32
sVhttp://dbpedia.org/property/route
p33
V45883
p34
sVhttp://dbpedia.org/ontology/wikiPageRevisionID
p35
V180570
p36
sVhttp://dbpedia.org/property/notes
p37
V72120
p38
sVhttp://dbpedia.org/property/built
p39
V40546
p40
s.