(dp0
Vhttp://dbpedia.org/ontology/debutTeam
p1
V19564
p2
sVhttp://dbpedia.org/property/dateOfBirth
p3
V20433
p4
sVhttp://dbpedia.org/property/throws
p5
V21279
p6
sVhttp://dbpedia.org/property/birthDate
p7
V21688
p8
sVhttp://dbpedia.org/ontology/position
p9
V23739
p10
sVhttp://dbpedia.org/ontology/birthPlace
p11
V24966
p12
sVhttp://dbpedia.org/ontology/wikiPageID
p13
V21369
p14
sVhttp://dbpedia.org/property/name
p15
V42564
p16
sVhttp://dbpedia.org/property/teams
p17
V20457
p18
sVhttp://dbpedia.org/property/position
p19
V24019
p20
sVhttp://dbpedia.org/property/birthPlace
p21
V23485
p22
sVhttp://dbpedia.org/property/shortDescription
p23
V20657
p24
sVhttp://dbpedia.org/property/placeOfBirth
p25
V21928
p26
sVhttp://dbpedia.org/property/bats
p27
V21284
p28
sVhttp://dbpedia.org/property/debutteam
p29
V19810
p30
sVhttp://dbpedia.org/ontology/birthYear
p31
V20395
p32
sVhttp://dbpedia.org/property/debutleague
p33
V19492
p34
sVhttp://dbpedia.org/ontology/wikiPageRevisionID
p35
V21369
p36
sVhttp://dbpedia.org/ontology/abstract
p37
V34357
p38
sVhttp://dbpedia.org/ontology/birthDate
p39
V21844
p40
s.