(dp0
Vhttp://dbpedia.org/property/chapterlistcol
p1
V507
p2
sVhttp://dbpedia.org/property/producer
p3
V1048
p4
sVhttp://dbpedia.org/property/isbn
p5
V472
p6
sVhttp://dbpedia.org/property/shortsummary
p7
V4796
p8
sVhttp://dbpedia.org/property/translittitle
p9
V649
p10
sVhttp://dbpedia.org/property/volumes
p11
V3833
p12
sVhttp://dbpedia.org/property/caption
p13
V2337
p14
sVhttp://dbpedia.org/property/genre
p15
V6425
p16
sVhttp://dbpedia.org/property/originalreldate
p17
V3316
p18
sVhttp://dbpedia.org/property/episodes
p19
V2048
p20
sVhttp://dbpedia.org/property/writer
p21
V1564
p22
sVhttp://dbpedia.org/property/publisherEn
p23
V442
p24
sVhttp://dbpedia.org/property/author
p25
V3656
p26
sVhttp://dbpedia.org/property/episodenumber
p27
V7023
p28
sVhttp://dbpedia.org/property/licensedisbn
p29
V549
p30
sVhttp://dbpedia.org/property/magazine
p31
V3542
p32
sVhttp://dbpedia.org/property/music
p33
V1252
p34
sVhttp://dbpedia.org/property/platforms
p35
V626
p36
sVhttp://dbpedia.org/property/reldate
p37
V2478
p38
sVhttp://dbpedia.org/property/wordnet_type
p39
V1374
p40
sVhttp://dbpedia.org/property/episodeList
p41
V1063
p42
sVhttp://dbpedia.org/property/volumeList
p43
V593
p44
sVhttp://dbpedia.org/property/romajititle
p45
V6231
p46
sVhttp://dbpedia.org/property/summary
p47
V427
p48
sVhttp://dbpedia.org/property/demographic
p49
V3121
p50
sVhttp://dbpedia.org/property/chapterlist
p51
V1047
p52
sVhttp://dbpedia.org/property/last
p53
V5006
p54
sVhttp://dbpedia.org/property/released
p55
V1651
p56
sVhttp://dbpedia.org/property/type
p57
V6110
p58
sVhttp://dbpedia.org/property/jaRomaji
p59
V2170
p60
sVhttp://dbpedia.org/property/licensedtitle
p61
V440
p62
sVhttp://dbpedia.org/property/first
p63
V6106
p64
sVhttp://dbpedia.org/property/originalairdate
p65
V7054
p66
sVhttp://dbpedia.org/property/publisher
p67
V4135
p68
sVhttp://dbpedia.org/property/published
p69
V519
p70
sVhttp://dbpedia.org/property/title
p71
V3470
p72
sVhttp://dbpedia.org/property/volumenumber
p73
V5572
p74
sVhttp://dbpedia.org/property/developer
p75
V358
p76
sVhttp://dbpedia.org/property/runtime
p77
V845
p78
sVhttp://dbpedia.org/property/studio
p79
V2265
p80
sVhttp://dbpedia.org/property/jaKanji
p81
V2986
p82
sVhttp://dbpedia.org/property/name
p83
V2448
p84
sVhttp://dbpedia.org/property/englishtitle
p85
V7103
p86
sVhttp://dbpedia.org/property/originaltitle
p87
V653
p88
sVhttp://dbpedia.org/property/originalisbn
p89
V728
p90
sVhttp://dbpedia.org/property/kanjititle
p91
V6645
p92
sVhttp://dbpedia.org/property/network
p93
V3211
p94
sVhttp://dbpedia.org/property/licensedreldate
p95
V2185
p96
sVhttp://dbpedia.org/property/director
p97
V2603
p98
sVhttp://dbpedia.org/property/illustrator
p99
V1303
p100
s.