(dp0
Vhttp://dbpedia.org/property/areaTotalKm
p1
V46484
p2
sVhttp://dbpedia.org/property/website
p3
V44567
p4
sVhttp://dbpedia.org/property/coordinatesRegion
p5
V149415
p6
sVhttp://dbpedia.org/property/longitude
p7
V38093
p8
sVhttp://dbpedia.org/property/imageCaption
p9
V35715
p10
sVhttp://dbpedia.org/property/settlementType
p11
V182119
p12
sVhttp://dbpedia.org/property/longew
p13
V199517
p14
sVhttp://dbpedia.org/property/timezone
p15
V158671
p16
sVhttp://dbpedia.org/property/utcOffsetDst
p17
V108315
p18
sVhttp://dbpedia.org/property/populationDensityKm
p19
V112813
p20
sVhttp://dbpedia.org/property/caption
p21
V62431
p22
sVhttp://dbpedia.org/property/utcOffset
p23
V154032
p24
sVhttp://dbpedia.org/property/mapsize
p25
V59283
p26
sVhttp://dbpedia.org/property/coordinatesDisplay
p27
V159779
p28
sVhttp://dbpedia.org/property/latd
p29
V193474
p30
sVhttp://dbpedia.org/property/region
p31
V53676
p32
sVhttp://dbpedia.org/property/populationAsOf
p33
V146756
p34
sVhttp://dbpedia.org/property/latm
p35
V171737
p36
sVhttp://dbpedia.org/property/notes
p37
V42477
p38
sVhttp://dbpedia.org/property/locmapin
p39
V34202
p40
sVhttp://dbpedia.org/property/postalCodeType
p41
V39525
p42
sVhttp://dbpedia.org/property/wordnet_type
p43
V52647
p44
sVhttp://dbpedia.org/property/governingBody
p45
V37046
p46
sVhttp://dbpedia.org/property/latns
p47
V199506
p48
sVhttp://dbpedia.org/property/lats
p49
V128659
p50
sVhttp://dbpedia.org/property/country
p51
V49442
p52
sVhttp://dbpedia.org/property/nativeName
p53
V84213
p54
sVhttp://dbpedia.org/property/pushpinMapCaption
p55
V72311
p56
sVhttp://dbpedia.org/property/mapCaption
p57
V56232
p58
sVhttp://dbpedia.org/property/longm
p59
V171744
p60
sVhttp://dbpedia.org/property/areaCode
p61
V45532
p62
sVhttp://dbpedia.org/property/officialName
p63
V136865
p64
sVhttp://dbpedia.org/property/pushpinMap
p65
V161935
p66
sVhttp://dbpedia.org/property/type
p67
V62662
p68
sVhttp://dbpedia.org/property/location
p69
V202349
p70
sVhttp://dbpedia.org/property/longd
p71
V193481
p72
sVhttp://dbpedia.org/property/mile
p73
V55690
p74
sVhttp://dbpedia.org/property/longs
p75
V128685
p76
sVhttp://dbpedia.org/property/pushpinLabelPosition
p77
V75267
p78
sVhttp://dbpedia.org/property/subdivisionName
p79
V626837
p80
sVhttp://dbpedia.org/property/subdivisionType
p81
V778001
p82
sVhttp://dbpedia.org/property/postalCode
p83
V66964
p84
sVhttp://dbpedia.org/property/populationTotal
p85
V140106
p86
sVhttp://dbpedia.org/property/unitPref
p87
V51019
p88
sVhttp://dbpedia.org/property/name
p89
V294297
p90
sVhttp://dbpedia.org/property/population
p91
V37349
p92
sVhttp://dbpedia.org/property/elevationM
p93
V63729
p94
sVhttp://dbpedia.org/property/timezoneDst
p95
V108305
p96
sVhttp://dbpedia.org/property/refnum
p97
V34077
p98
sVhttp://dbpedia.org/property/latitude
p99
V38089
p100
s.